
sacci.elf:     file format elf32-avr

Sections:
Idx Name          Size      VMA       LMA       File off  Algn
  0 .data         00000526  00800100  00002d50  00002de4  2**0
                  CONTENTS, ALLOC, LOAD, DATA
  1 .text         00002d50  00000000  00000000  00000094  2**1
                  CONTENTS, ALLOC, LOAD, READONLY, CODE
  2 .bss          000000bb  00800626  00800626  0000330a  2**0
                  ALLOC
  3 .stab         00002880  00000000  00000000  0000330c  2**2
                  CONTENTS, READONLY, DEBUGGING
  4 .stabstr      00000a32  00000000  00000000  00005b8c  2**0
                  CONTENTS, READONLY, DEBUGGING
  5 .comment      0000002f  00000000  00000000  000065be  2**0
                  CONTENTS, READONLY
  6 .debug_aranges 000001e8  00000000  00000000  000065ed  2**0
                  CONTENTS, READONLY, DEBUGGING
  7 .debug_info   0000332a  00000000  00000000  000067d5  2**0
                  CONTENTS, READONLY, DEBUGGING
  8 .debug_abbrev 0000042c  00000000  00000000  00009aff  2**0
                  CONTENTS, READONLY, DEBUGGING
  9 .debug_line   00000ca1  00000000  00000000  00009f2b  2**0
                  CONTENTS, READONLY, DEBUGGING
 10 .debug_frame  00000824  00000000  00000000  0000abcc  2**2
                  CONTENTS, READONLY, DEBUGGING
 11 .debug_str    000006cf  00000000  00000000  0000b3f0  2**0
                  CONTENTS, READONLY, DEBUGGING
 12 .debug_loc    00002282  00000000  00000000  0000babf  2**0
                  CONTENTS, READONLY, DEBUGGING
 13 .debug_ranges 000001f0  00000000  00000000  0000dd41  2**0
                  CONTENTS, READONLY, DEBUGGING

Disassembly of section .text:

00000000 <__vectors>:
       0:	0c 94 34 00 	jmp	0x68	; 0x68 <__ctors_end>
       4:	0c 94 51 00 	jmp	0xa2	; 0xa2 <__bad_interrupt>
       8:	0c 94 51 00 	jmp	0xa2	; 0xa2 <__bad_interrupt>
       c:	0c 94 51 00 	jmp	0xa2	; 0xa2 <__bad_interrupt>
      10:	0c 94 51 00 	jmp	0xa2	; 0xa2 <__bad_interrupt>
      14:	0c 94 51 00 	jmp	0xa2	; 0xa2 <__bad_interrupt>
      18:	0c 94 51 00 	jmp	0xa2	; 0xa2 <__bad_interrupt>
      1c:	0c 94 51 00 	jmp	0xa2	; 0xa2 <__bad_interrupt>
      20:	0c 94 51 00 	jmp	0xa2	; 0xa2 <__bad_interrupt>
      24:	0c 94 53 13 	jmp	0x26a6	; 0x26a6 <__vector_9>
      28:	0c 94 51 00 	jmp	0xa2	; 0xa2 <__bad_interrupt>
      2c:	0c 94 51 00 	jmp	0xa2	; 0xa2 <__bad_interrupt>
      30:	0c 94 51 00 	jmp	0xa2	; 0xa2 <__bad_interrupt>
      34:	0c 94 51 00 	jmp	0xa2	; 0xa2 <__bad_interrupt>
      38:	0c 94 51 00 	jmp	0xa2	; 0xa2 <__bad_interrupt>
      3c:	0c 94 51 00 	jmp	0xa2	; 0xa2 <__bad_interrupt>
      40:	0c 94 cb 02 	jmp	0x596	; 0x596 <__vector_16>
      44:	0c 94 51 00 	jmp	0xa2	; 0xa2 <__bad_interrupt>
      48:	0c 94 51 00 	jmp	0xa2	; 0xa2 <__bad_interrupt>
      4c:	0c 94 51 00 	jmp	0xa2	; 0xa2 <__bad_interrupt>
      50:	0c 94 51 00 	jmp	0xa2	; 0xa2 <__bad_interrupt>
      54:	0c 94 51 00 	jmp	0xa2	; 0xa2 <__bad_interrupt>
      58:	0c 94 51 00 	jmp	0xa2	; 0xa2 <__bad_interrupt>
      5c:	0c 94 51 00 	jmp	0xa2	; 0xa2 <__bad_interrupt>
      60:	0c 94 51 00 	jmp	0xa2	; 0xa2 <__bad_interrupt>
      64:	0c 94 51 00 	jmp	0xa2	; 0xa2 <__bad_interrupt>

00000068 <__ctors_end>:
      68:	11 24       	eor	r1, r1
      6a:	1f be       	out	0x3f, r1	; 63
      6c:	cf ef       	ldi	r28, 0xFF	; 255
      6e:	d8 e0       	ldi	r29, 0x08	; 8
      70:	de bf       	out	0x3e, r29	; 62
      72:	cd bf       	out	0x3d, r28	; 61

00000074 <__do_copy_data>:
      74:	16 e0       	ldi	r17, 0x06	; 6
      76:	a0 e0       	ldi	r26, 0x00	; 0
      78:	b1 e0       	ldi	r27, 0x01	; 1
      7a:	e0 e5       	ldi	r30, 0x50	; 80
      7c:	fd e2       	ldi	r31, 0x2D	; 45
      7e:	02 c0       	rjmp	.+4      	; 0x84 <__do_copy_data+0x10>
      80:	05 90       	lpm	r0, Z+
      82:	0d 92       	st	X+, r0
      84:	a6 32       	cpi	r26, 0x26	; 38
      86:	b1 07       	cpc	r27, r17
      88:	d9 f7       	brne	.-10     	; 0x80 <__do_copy_data+0xc>

0000008a <__do_clear_bss>:
      8a:	26 e0       	ldi	r18, 0x06	; 6
      8c:	a6 e2       	ldi	r26, 0x26	; 38
      8e:	b6 e0       	ldi	r27, 0x06	; 6
      90:	01 c0       	rjmp	.+2      	; 0x94 <.do_clear_bss_start>

00000092 <.do_clear_bss_loop>:
      92:	1d 92       	st	X+, r1

00000094 <.do_clear_bss_start>:
      94:	a1 3e       	cpi	r26, 0xE1	; 225
      96:	b2 07       	cpc	r27, r18
      98:	e1 f7       	brne	.-8      	; 0x92 <.do_clear_bss_loop>
      9a:	0e 94 af 13 	call	0x275e	; 0x275e <main>
      9e:	0c 94 a6 16 	jmp	0x2d4c	; 0x2d4c <_exit>

000000a2 <__bad_interrupt>:
      a2:	0c 94 00 00 	jmp	0	; 0x0 <__vectors>

000000a6 <adc_read>:
#ifndef INTERFACES_H
#define INTERFACES_H


int adc_read(char pino){
	ADMUX  = 0b01000000 | (pino&0x07);
      a6:	87 70       	andi	r24, 0x07	; 7
      a8:	80 64       	ori	r24, 0x40	; 64
      aa:	80 93 7c 00 	sts	0x007C, r24
	ADCSRA |= (1<<ADSC);
      ae:	ea e7       	ldi	r30, 0x7A	; 122
      b0:	f0 e0       	ldi	r31, 0x00	; 0
      b2:	80 81       	ld	r24, Z
      b4:	80 64       	ori	r24, 0x40	; 64
      b6:	80 83       	st	Z, r24
	while(ADCSRA&(1<<ADSC));
      b8:	80 81       	ld	r24, Z
      ba:	86 fd       	sbrc	r24, 6
      bc:	fd cf       	rjmp	.-6      	; 0xb8 <adc_read+0x12>
	return ADC;
      be:	20 91 78 00 	lds	r18, 0x0078
      c2:	30 91 79 00 	lds	r19, 0x0079
}
      c6:	82 2f       	mov	r24, r18
      c8:	93 2f       	mov	r25, r19
      ca:	08 95       	ret

000000cc <async_adc_read>:
int async_adc_read(char pino){
	int ret = ADC;
      cc:	20 91 78 00 	lds	r18, 0x0078
      d0:	30 91 79 00 	lds	r19, 0x0079
	ADMUX  = 0b01000000 | (pino&0x07);
      d4:	87 70       	andi	r24, 0x07	; 7
      d6:	80 64       	ori	r24, 0x40	; 64
      d8:	80 93 7c 00 	sts	0x007C, r24
	ADCSRA |= (1<<ADSC);
      dc:	ea e7       	ldi	r30, 0x7A	; 122
      de:	f0 e0       	ldi	r31, 0x00	; 0
      e0:	80 81       	ld	r24, Z
      e2:	80 64       	ori	r24, 0x40	; 64
      e4:	80 83       	st	Z, r24
	return ret;
}
      e6:	82 2f       	mov	r24, r18
      e8:	93 2f       	mov	r25, r19
      ea:	08 95       	ret

000000ec <estado_aquecedor>:
char estado_aquecedor(){
	return (PORTC&(1<<5))>0;
      ec:	81 e0       	ldi	r24, 0x01	; 1
      ee:	45 9b       	sbis	0x08, 5	; 8
      f0:	80 e0       	ldi	r24, 0x00	; 0
}
      f2:	08 95       	ret

000000f4 <aquecedor_ligar>:
void aquecedor_ligar(){
	PORTC |= (1<<5);
      f4:	45 9a       	sbi	0x08, 5	; 8
      f6:	08 95       	ret

000000f8 <aquecedor_desligar>:
}
void aquecedor_desligar(){
	PORTC &= ~(1<<5);
      f8:	45 98       	cbi	0x08, 5	; 8
      fa:	08 95       	ret

000000fc <motor_subir>:
}
void motor_subir(){
	PORTD &= ~(1<<2);
      fc:	5a 98       	cbi	0x0b, 2	; 11
	PORTD |=  (1<<3);
      fe:	5b 9a       	sbi	0x0b, 3	; 11
     100:	08 95       	ret

00000102 <motor_descer>:
}
void motor_descer(){
	PORTD &= ~(1<<3);
     102:	5b 98       	cbi	0x0b, 3	; 11
	PORTD |=  (1<<2);
     104:	5a 9a       	sbi	0x0b, 2	; 11
     106:	08 95       	ret

00000108 <motor_parar>:
}
void motor_parar(){
	PORTD &= ~((1<<2)|(1<<3));
     108:	8b b1       	in	r24, 0x0b	; 11
     10a:	83 7f       	andi	r24, 0xF3	; 243
     10c:	8b b9       	out	0x0b, r24	; 11
     10e:	08 95       	ret

00000110 <estado_motor>:
}
char estado_motor(){
	return (PORTD>>2)&0x03;
     110:	8b b1       	in	r24, 0x0b	; 11
     112:	86 95       	lsr	r24
     114:	86 95       	lsr	r24
}
     116:	83 70       	andi	r24, 0x03	; 3
     118:	08 95       	ret

0000011a <init_interfaces>:
void init_interfaces(){
	//resistencia/aquecedor
	DDRC |= (1<<5);
     11a:	3d 9a       	sbi	0x07, 5	; 7
	PORTC &= ~(1<<5);
     11c:	45 98       	cbi	0x08, 5	; 8
	//motor
	DDRD |= (1<<2)|(1<<3);
     11e:	8a b1       	in	r24, 0x0a	; 10
     120:	8c 60       	ori	r24, 0x0C	; 12
     122:	8a b9       	out	0x0a, r24	; 10
	PORTD &= ~((1<<2)|(1<<3));
     124:	8b b1       	in	r24, 0x0b	; 11
     126:	83 7f       	andi	r24, 0xF3	; 243
     128:	8b b9       	out	0x0b, r24	; 11
	//botoes
	DDRD &=~((1<<0)|(1<<1)|(1<<4));
     12a:	8a b1       	in	r24, 0x0a	; 10
     12c:	8c 7e       	andi	r24, 0xEC	; 236
     12e:	8a b9       	out	0x0a, r24	; 10
	DDRC &=~(1<<4);
     130:	3c 98       	cbi	0x07, 4	; 7
	MCUCR &= ~(1<<4);
     132:	85 b7       	in	r24, 0x35	; 53
     134:	8f 7e       	andi	r24, 0xEF	; 239
     136:	85 bf       	out	0x35, r24	; 53
	PORTD |= (1<<0)|(1<<1)|(1<<4);
     138:	8b b1       	in	r24, 0x0b	; 11
     13a:	83 61       	ori	r24, 0x13	; 19
     13c:	8b b9       	out	0x0b, r24	; 11
	PORTC |= (1<<4);
     13e:	44 9a       	sbi	0x08, 4	; 8
	//fimdecurso
	DDRC &=~((1<<2)|(1<<3));
     140:	87 b1       	in	r24, 0x07	; 7
     142:	83 7f       	andi	r24, 0xF3	; 243
     144:	87 b9       	out	0x07, r24	; 7
	PORTC &=~((1<<2)|(1<<3));
     146:	88 b1       	in	r24, 0x08	; 8
     148:	83 7f       	andi	r24, 0xF3	; 243
     14a:	88 b9       	out	0x08, r24	; 8
	//analog
	ADMUX  = 0b01000000;//bits forma natural(2-8), Referencia 5V.
     14c:	80 e4       	ldi	r24, 0x40	; 64
     14e:	80 93 7c 00 	sts	0x007C, r24
	ADCSRA = 0b10000111;//clk/128, ADC habilitado
     152:	87 e8       	ldi	r24, 0x87	; 135
     154:	80 93 7a 00 	sts	0x007A, r24
	DIDR0  = 0b00000011;//Pinos PC0 e PC1 analogicos
     158:	83 e0       	ldi	r24, 0x03	; 3
     15a:	80 93 7e 00 	sts	0x007E, r24
     15e:	08 95       	ret

00000160 <botao_cima>:
}
char botao_cima(){
	return (PINC&(1<<4))==0;
     160:	86 b1       	in	r24, 0x06	; 6
     162:	82 95       	swap	r24
     164:	81 70       	andi	r24, 0x01	; 1
}
     166:	91 e0       	ldi	r25, 0x01	; 1
     168:	89 27       	eor	r24, r25
     16a:	08 95       	ret

0000016c <botao_baixo>:
char botao_baixo(){
	return (PIND&(1<<4))==0;
     16c:	89 b1       	in	r24, 0x09	; 9
     16e:	82 95       	swap	r24
     170:	81 70       	andi	r24, 0x01	; 1
}
     172:	91 e0       	ldi	r25, 0x01	; 1
     174:	89 27       	eor	r24, r25
     176:	08 95       	ret

00000178 <botao_direita>:
char botao_direita(){
	return (PIND&(1<<0))==0;
     178:	89 b1       	in	r24, 0x09	; 9
     17a:	80 95       	com	r24
}
     17c:	81 70       	andi	r24, 0x01	; 1
     17e:	08 95       	ret

00000180 <botao_esquerda>:
char botao_esquerda(){
	return (PIND&(1<<1))==0;
     180:	89 b1       	in	r24, 0x09	; 9
     182:	86 95       	lsr	r24
     184:	81 70       	andi	r24, 0x01	; 1
}
     186:	91 e0       	ldi	r25, 0x01	; 1
     188:	89 27       	eor	r24, r25
     18a:	08 95       	ret

0000018c <fdc_1>:
char fdc_1(){
	return (PINC&(1<<2))>0;
     18c:	81 e0       	ldi	r24, 0x01	; 1
     18e:	32 9b       	sbis	0x06, 2	; 6
     190:	80 e0       	ldi	r24, 0x00	; 0
}
     192:	08 95       	ret

00000194 <fdc_2>:
char fdc_2(){
	return (PINC&(1<<3))>0;
     194:	81 e0       	ldi	r24, 0x01	; 1
     196:	33 9b       	sbis	0x06, 3	; 6
     198:	80 e0       	ldi	r24, 0x00	; 0
}
     19a:	08 95       	ret

0000019c <botoes_ler>:
char botoes_ler(int timeout){
     19c:	4f 92       	push	r4
     19e:	5f 92       	push	r5
     1a0:	6f 92       	push	r6
     1a2:	7f 92       	push	r7
     1a4:	8f 92       	push	r8
     1a6:	9f 92       	push	r9
     1a8:	af 92       	push	r10
     1aa:	bf 92       	push	r11
     1ac:	cf 92       	push	r12
     1ae:	df 92       	push	r13
     1b0:	ef 92       	push	r14
     1b2:	ff 92       	push	r15
     1b4:	0f 93       	push	r16
     1b6:	1f 93       	push	r17
     1b8:	cf 93       	push	r28
     1ba:	df 93       	push	r29
     1bc:	3c 01       	movw	r6, r24
	char maximo = 0;
	char leitura;
	while(maximo==0){
		leitura = ((botao_baixo()&0x01)<<0)|((botao_cima()&0x01)<<1)|((botao_direita()&0x01)<<2)|((botao_esquerda()&0x01)<<3);
     1be:	0e 94 b6 00 	call	0x16c	; 0x16c <botao_baixo>
     1c2:	58 2e       	mov	r5, r24
     1c4:	0e 94 b0 00 	call	0x160	; 0x160 <botao_cima>
     1c8:	48 2e       	mov	r4, r24
     1ca:	0e 94 bc 00 	call	0x178	; 0x178 <botao_direita>
     1ce:	24 2d       	mov	r18, r4
     1d0:	21 70       	andi	r18, 0x01	; 1
     1d2:	c2 2f       	mov	r28, r18
     1d4:	90 e0       	ldi	r25, 0x00	; 0
     1d6:	d9 2f       	mov	r29, r25
     1d8:	9e 01       	movw	r18, r28
     1da:	22 0f       	add	r18, r18
     1dc:	33 1f       	adc	r19, r19
     1de:	08 2f       	mov	r16, r24
     1e0:	01 70       	andi	r16, 0x01	; 1
     1e2:	10 e0       	ldi	r17, 0x00	; 0
     1e4:	a8 01       	movw	r20, r16
     1e6:	44 0f       	add	r20, r20
     1e8:	55 1f       	adc	r21, r21
     1ea:	44 0f       	add	r20, r20
     1ec:	55 1f       	adc	r21, r21
     1ee:	42 2b       	or	r20, r18
     1f0:	85 2d       	mov	r24, r5
     1f2:	81 70       	andi	r24, 0x01	; 1
     1f4:	54 2e       	mov	r5, r20
     1f6:	58 2a       	or	r5, r24
     1f8:	0e 94 c0 00 	call	0x180	; 0x180 <botao_esquerda>
     1fc:	80 fb       	bst	r24, 0
     1fe:	ee 24       	eor	r14, r14
     200:	e0 f8       	bld	r14, 0
     202:	f1 2c       	mov	r15, r1
     204:	a7 01       	movw	r20, r14
     206:	44 0f       	add	r20, r20
     208:	55 1f       	adc	r21, r21
     20a:	44 0f       	add	r20, r20
     20c:	55 1f       	adc	r21, r21
     20e:	44 0f       	add	r20, r20
     210:	55 1f       	adc	r21, r21
     212:	45 29       	or	r20, r5
	#else
		//round up by default
		__ticks_dc = (uint32_t)(ceil(fabs(__tmp)));
	#endif

	__builtin_avr_delay_cycles(__ticks_dc);
     214:	8f e9       	ldi	r24, 0x9F	; 159
     216:	9f e0       	ldi	r25, 0x0F	; 15
     218:	01 97       	sbiw	r24, 0x01	; 1
     21a:	f1 f7       	brne	.-4      	; 0x218 <botoes_ler+0x7c>
     21c:	00 c0       	rjmp	.+0      	; 0x21e <botoes_ler+0x82>
     21e:	00 00       	nop
		maximo |= leitura;
		_delay_ms(1);
		timeout--;
     220:	91 e0       	ldi	r25, 0x01	; 1
     222:	69 1a       	sub	r6, r25
     224:	71 08       	sbc	r7, r1
		if(timeout==0)return 0;
     226:	09 f4       	brne	.+2      	; 0x22a <botoes_ler+0x8e>
     228:	63 c0       	rjmp	.+198    	; 0x2f0 <botoes_ler+0x154>
	return (PINC&(1<<3))>0;
}
char botoes_ler(int timeout){
	char maximo = 0;
	char leitura;
	while(maximo==0){
     22a:	44 23       	and	r20, r20
     22c:	41 f2       	breq	.-112    	; 0x1be <botoes_ler+0x22>
     22e:	2f ef       	ldi	r18, 0xFF	; 255
     230:	81 ee       	ldi	r24, 0xE1	; 225
     232:	94 e0       	ldi	r25, 0x04	; 4
     234:	21 50       	subi	r18, 0x01	; 1
     236:	80 40       	sbci	r24, 0x00	; 0
     238:	90 40       	sbci	r25, 0x00	; 0
     23a:	e1 f7       	brne	.-8      	; 0x234 <botoes_ler+0x98>
     23c:	00 c0       	rjmp	.+0      	; 0x23e <botoes_ler+0xa2>
     23e:	00 00       	nop
		_delay_ms(1);
		timeout--;
		if(timeout==0)return 0;
	}
	_delay_ms(100);
	while(leitura!=0){
     240:	44 23       	and	r20, r20
     242:	c9 f1       	breq	.+114    	; 0x2b6 <botoes_ler+0x11a>
char botoes_ler(int timeout){
	char maximo = 0;
	char leitura;
	while(maximo==0){
		leitura = ((botao_baixo()&0x01)<<0)|((botao_cima()&0x01)<<1)|((botao_direita()&0x01)<<2)|((botao_esquerda()&0x01)<<3);
		maximo |= leitura;
     244:	c4 2f       	mov	r28, r20
		timeout--;
		if(timeout==0)return 0;
	}
	_delay_ms(100);
	while(leitura!=0){
		leitura = ((botao_baixo()&0x01)<<0)|((botao_cima()&0x01)<<1)|((botao_direita()&0x01)<<2)|((botao_esquerda()&0x01)<<3);
     246:	0e 94 b6 00 	call	0x16c	; 0x16c <botao_baixo>
     24a:	18 2f       	mov	r17, r24
     24c:	0e 94 b0 00 	call	0x160	; 0x160 <botao_cima>
     250:	d8 2f       	mov	r29, r24
     252:	0e 94 bc 00 	call	0x178	; 0x178 <botao_direita>
     256:	d0 fb       	bst	r29, 0
     258:	88 24       	eor	r8, r8
     25a:	80 f8       	bld	r8, 0
     25c:	91 2c       	mov	r9, r1
     25e:	b4 01       	movw	r22, r8
     260:	66 0f       	add	r22, r22
     262:	77 1f       	adc	r23, r23
     264:	80 fb       	bst	r24, 0
     266:	cc 24       	eor	r12, r12
     268:	c0 f8       	bld	r12, 0
     26a:	d1 2c       	mov	r13, r1
     26c:	f6 01       	movw	r30, r12
     26e:	ee 0f       	add	r30, r30
     270:	ff 1f       	adc	r31, r31
     272:	ee 0f       	add	r30, r30
     274:	ff 1f       	adc	r31, r31
     276:	e6 2b       	or	r30, r22
     278:	11 70       	andi	r17, 0x01	; 1
     27a:	de 2f       	mov	r29, r30
     27c:	d1 2b       	or	r29, r17
     27e:	0e 94 c0 00 	call	0x180	; 0x180 <botao_esquerda>
     282:	80 fb       	bst	r24, 0
     284:	aa 24       	eor	r10, r10
     286:	a0 f8       	bld	r10, 0
     288:	b1 2c       	mov	r11, r1
     28a:	f5 01       	movw	r30, r10
     28c:	ee 0f       	add	r30, r30
     28e:	ff 1f       	adc	r31, r31
     290:	ee 0f       	add	r30, r30
     292:	ff 1f       	adc	r31, r31
     294:	ee 0f       	add	r30, r30
     296:	ff 1f       	adc	r31, r31
     298:	ed 2b       	or	r30, r29
		maximo |= leitura;
     29a:	ce 2b       	or	r28, r30
     29c:	8f e9       	ldi	r24, 0x9F	; 159
     29e:	9f e0       	ldi	r25, 0x0F	; 15
     2a0:	01 97       	sbiw	r24, 0x01	; 1
     2a2:	f1 f7       	brne	.-4      	; 0x2a0 <botoes_ler+0x104>
     2a4:	00 c0       	rjmp	.+0      	; 0x2a6 <botoes_ler+0x10a>
     2a6:	00 00       	nop
		_delay_ms(1);
		timeout--;
     2a8:	91 e0       	ldi	r25, 0x01	; 1
     2aa:	69 1a       	sub	r6, r25
     2ac:	71 08       	sbc	r7, r1
		if(timeout==0)return 0;
     2ae:	11 f1       	breq	.+68     	; 0x2f4 <botoes_ler+0x158>
		_delay_ms(1);
		timeout--;
		if(timeout==0)return 0;
	}
	_delay_ms(100);
	while(leitura!=0){
     2b0:	e1 11       	cpse	r30, r1
     2b2:	c9 cf       	rjmp	.-110    	; 0x246 <botoes_ler+0xaa>
     2b4:	01 c0       	rjmp	.+2      	; 0x2b8 <botoes_ler+0x11c>
char botoes_ler(int timeout){
	char maximo = 0;
	char leitura;
	while(maximo==0){
		leitura = ((botao_baixo()&0x01)<<0)|((botao_cima()&0x01)<<1)|((botao_direita()&0x01)<<2)|((botao_esquerda()&0x01)<<3);
		maximo |= leitura;
     2b6:	c4 2f       	mov	r28, r20
     2b8:	2f ef       	ldi	r18, 0xFF	; 255
     2ba:	81 ee       	ldi	r24, 0xE1	; 225
     2bc:	94 e0       	ldi	r25, 0x04	; 4
     2be:	21 50       	subi	r18, 0x01	; 1
     2c0:	80 40       	sbci	r24, 0x00	; 0
     2c2:	90 40       	sbci	r25, 0x00	; 0
     2c4:	e1 f7       	brne	.-8      	; 0x2be <botoes_ler+0x122>
     2c6:	00 c0       	rjmp	.+0      	; 0x2c8 <botoes_ler+0x12c>
     2c8:	00 00       	nop
		_delay_ms(1);
		timeout--;
		if(timeout==0)return 0;
	}
	_delay_ms(100);
	switch(maximo){
     2ca:	c2 30       	cpi	r28, 0x02	; 2
     2cc:	a9 f0       	breq	.+42     	; 0x2f8 <botoes_ler+0x15c>
     2ce:	18 f4       	brcc	.+6      	; 0x2d6 <botoes_ler+0x13a>
     2d0:	c1 30       	cpi	r28, 0x01	; 1
     2d2:	61 f4       	brne	.+24     	; 0x2ec <botoes_ler+0x150>
     2d4:	05 c0       	rjmp	.+10     	; 0x2e0 <botoes_ler+0x144>
     2d6:	c4 30       	cpi	r28, 0x04	; 4
     2d8:	29 f0       	breq	.+10     	; 0x2e4 <botoes_ler+0x148>
     2da:	c8 30       	cpi	r28, 0x08	; 8
     2dc:	39 f4       	brne	.+14     	; 0x2ec <botoes_ler+0x150>
     2de:	04 c0       	rjmp	.+8      	; 0x2e8 <botoes_ler+0x14c>
		case 0b00000001:return 1;
     2e0:	81 e0       	ldi	r24, 0x01	; 1
     2e2:	0b c0       	rjmp	.+22     	; 0x2fa <botoes_ler+0x15e>
		case 0b00000010:return 2;
		case 0b00000100:return 3;
     2e4:	83 e0       	ldi	r24, 0x03	; 3
     2e6:	09 c0       	rjmp	.+18     	; 0x2fa <botoes_ler+0x15e>
		case 0b00001000:return 4;
     2e8:	84 e0       	ldi	r24, 0x04	; 4
     2ea:	07 c0       	rjmp	.+14     	; 0x2fa <botoes_ler+0x15e>
	}
	return 0;
     2ec:	80 e0       	ldi	r24, 0x00	; 0
     2ee:	05 c0       	rjmp	.+10     	; 0x2fa <botoes_ler+0x15e>
	while(maximo==0){
		leitura = ((botao_baixo()&0x01)<<0)|((botao_cima()&0x01)<<1)|((botao_direita()&0x01)<<2)|((botao_esquerda()&0x01)<<3);
		maximo |= leitura;
		_delay_ms(1);
		timeout--;
		if(timeout==0)return 0;
     2f0:	80 e0       	ldi	r24, 0x00	; 0
     2f2:	03 c0       	rjmp	.+6      	; 0x2fa <botoes_ler+0x15e>
	while(leitura!=0){
		leitura = ((botao_baixo()&0x01)<<0)|((botao_cima()&0x01)<<1)|((botao_direita()&0x01)<<2)|((botao_esquerda()&0x01)<<3);
		maximo |= leitura;
		_delay_ms(1);
		timeout--;
		if(timeout==0)return 0;
     2f4:	80 e0       	ldi	r24, 0x00	; 0
     2f6:	01 c0       	rjmp	.+2      	; 0x2fa <botoes_ler+0x15e>
	}
	_delay_ms(100);
	switch(maximo){
		case 0b00000001:return 1;
		case 0b00000010:return 2;
     2f8:	82 e0       	ldi	r24, 0x02	; 2
		case 0b00000100:return 3;
		case 0b00001000:return 4;
	}
	return 0;
}
     2fa:	df 91       	pop	r29
     2fc:	cf 91       	pop	r28
     2fe:	1f 91       	pop	r17
     300:	0f 91       	pop	r16
     302:	ff 90       	pop	r15
     304:	ef 90       	pop	r14
     306:	df 90       	pop	r13
     308:	cf 90       	pop	r12
     30a:	bf 90       	pop	r11
     30c:	af 90       	pop	r10
     30e:	9f 90       	pop	r9
     310:	8f 90       	pop	r8
     312:	7f 90       	pop	r7
     314:	6f 90       	pop	r6
     316:	5f 90       	pop	r5
     318:	4f 90       	pop	r4
     31a:	08 95       	ret

0000031c <lcd_set_data_write>:

#define LCD_MSG_DIV 3
char LCD_MSG_POS[3], LCD_MENSAGEM[128], LCD_TAM_MENSAGEM, LCD_MSG_ATUAL, LCD_MSG_COUNTER;

void lcd_set_data_write(){
	DDRB |= (0x0F);
     31c:	84 b1       	in	r24, 0x04	; 4
     31e:	8f 60       	ori	r24, 0x0F	; 15
     320:	84 b9       	out	0x04, r24	; 4
     322:	08 95       	ret

00000324 <lcd_write_pin>:
}
void lcd_write_pin(){
	PORTD &=~(1<<6);
     324:	5e 98       	cbi	0x0b, 6	; 11
     326:	08 95       	ret

00000328 <lcd_data_pin>:
}
void lcd_data_pin(){
	PORTD |= (1<<5);
     328:	5d 9a       	sbi	0x0b, 5	; 11
     32a:	08 95       	ret

0000032c <lcd_instr_pin>:
}
void lcd_instr_pin(){
	PORTD &=~(1<<5);
     32c:	5d 98       	cbi	0x0b, 5	; 11
     32e:	08 95       	ret

00000330 <lcd_pulse_e>:
	#else
		//round up by default
		__ticks_dc = (uint32_t)(ceil(fabs(__tmp)));
	#endif

	__builtin_avr_delay_cycles(__ticks_dc);
     330:	85 e3       	ldi	r24, 0x35	; 53
     332:	8a 95       	dec	r24
     334:	f1 f7       	brne	.-4      	; 0x332 <lcd_pulse_e+0x2>
     336:	00 00       	nop
inline void lcd_low_e(){
	PORTD &=~(1<<7);
}
void lcd_pulse_e(){
	_delay_us(10);
	PORTD |= (1<<7);
     338:	5f 9a       	sbi	0x0b, 7	; 11
     33a:	85 e3       	ldi	r24, 0x35	; 53
     33c:	8a 95       	dec	r24
     33e:	f1 f7       	brne	.-4      	; 0x33c <lcd_pulse_e+0xc>
     340:	00 00       	nop
	_delay_us(10);
	PORTD &=~(1<<7);
     342:	5f 98       	cbi	0x0b, 7	; 11
     344:	85 e3       	ldi	r24, 0x35	; 53
     346:	8a 95       	dec	r24
     348:	f1 f7       	brne	.-4      	; 0x346 <lcd_pulse_e+0x16>
     34a:	00 00       	nop
     34c:	08 95       	ret

0000034e <lcd_write_4bit>:
	_delay_us(10);
}
void lcd_write_4bit(char c){
	PORTB = (PORTB&0xF0)|(c&0x0F);
     34e:	95 b1       	in	r25, 0x05	; 5
     350:	8f 70       	andi	r24, 0x0F	; 15
     352:	90 7f       	andi	r25, 0xF0	; 240
     354:	98 2b       	or	r25, r24
     356:	95 b9       	out	0x05, r25	; 5
     358:	08 95       	ret

0000035a <lcd_send_8bit>:
}
void lcd_send_8bit(char c){ //Ou adaptar para funcionamento em 8 bits
     35a:	cf 93       	push	r28
     35c:	c8 2f       	mov	r28, r24
	lcd_write_4bit(c>>4);
     35e:	82 95       	swap	r24
     360:	8f 70       	andi	r24, 0x0F	; 15
     362:	0e 94 a7 01 	call	0x34e	; 0x34e <lcd_write_4bit>
	lcd_pulse_e();
     366:	0e 94 98 01 	call	0x330	; 0x330 <lcd_pulse_e>
	lcd_write_4bit(c);
     36a:	8c 2f       	mov	r24, r28
     36c:	0e 94 a7 01 	call	0x34e	; 0x34e <lcd_write_4bit>
	lcd_pulse_e();
     370:	0e 94 98 01 	call	0x330	; 0x330 <lcd_pulse_e>
}
     374:	cf 91       	pop	r28
     376:	08 95       	ret

00000378 <lcd_inicializar_pinos>:
void lcd_inicializar_pinos(){
	lcd_set_data_write();
     378:	0e 94 8e 01 	call	0x31c	; 0x31c <lcd_set_data_write>
	DDRD |= 0xE0;
     37c:	8a b1       	in	r24, 0x0a	; 10
     37e:	80 6e       	ori	r24, 0xE0	; 224
     380:	8a b9       	out	0x0a, r24	; 10
	lcd_write_pin();
     382:	0e 94 92 01 	call	0x324	; 0x324 <lcd_write_pin>
	lcd_data_pin();
     386:	0e 94 94 01 	call	0x328	; 0x328 <lcd_data_pin>
	PORTD &=~(1<<7);
     38a:	5f 98       	cbi	0x0b, 7	; 11
	PORTB |= 0xF0;
     38c:	85 b1       	in	r24, 0x05	; 5
     38e:	80 6f       	ori	r24, 0xF0	; 240
     390:	85 b9       	out	0x05, r24	; 5
     392:	08 95       	ret

00000394 <lcd_send_data>:
}
// Fim das funções básicas
void lcd_send_data(char d){
     394:	cf 93       	push	r28
     396:	c8 2f       	mov	r28, r24
	lcd_data_pin();
     398:	0e 94 94 01 	call	0x328	; 0x328 <lcd_data_pin>
	lcd_send_8bit(d);
     39c:	8c 2f       	mov	r24, r28
     39e:	0e 94 ad 01 	call	0x35a	; 0x35a <lcd_send_8bit>
}
     3a2:	cf 91       	pop	r28
     3a4:	08 95       	ret

000003a6 <lcd_send_cmd>:
void lcd_send_cmd(char c){
     3a6:	cf 93       	push	r28
     3a8:	c8 2f       	mov	r28, r24
	lcd_instr_pin();
     3aa:	0e 94 96 01 	call	0x32c	; 0x32c <lcd_instr_pin>
	lcd_send_8bit(c);
     3ae:	8c 2f       	mov	r24, r28
     3b0:	0e 94 ad 01 	call	0x35a	; 0x35a <lcd_send_8bit>
}
     3b4:	cf 91       	pop	r28
     3b6:	08 95       	ret

000003b8 <lcd_clear_screen>:
//Fim das funções intermediarias
void lcd_clear_screen(){
	//Escreve 0x20 em DDRA e seta o endereço da DDRAM pra 0x00 (AC)
	lcd_send_cmd(0x01);
     3b8:	81 e0       	ldi	r24, 0x01	; 1
     3ba:	0e 94 d3 01 	call	0x3a6	; 0x3a6 <lcd_send_cmd>
	#else
		//round up by default
		__ticks_dc = (uint32_t)(ceil(fabs(__tmp)));
	#endif

	__builtin_avr_delay_cycles(__ticks_dc);
     3be:	8f e1       	ldi	r24, 0x1F	; 31
     3c0:	9e e4       	ldi	r25, 0x4E	; 78
     3c2:	01 97       	sbiw	r24, 0x01	; 1
     3c4:	f1 f7       	brne	.-4      	; 0x3c2 <lcd_clear_screen+0xa>
     3c6:	00 c0       	rjmp	.+0      	; 0x3c8 <lcd_clear_screen+0x10>
     3c8:	00 00       	nop
     3ca:	08 95       	ret

000003cc <lcd_return_home>:
	_delay_ms(5);
}
void lcd_return_home(){
	//Seta o endereço da DDRAM pra 0x00 (AC) e retorna o cursor para a posição inicial
	lcd_send_cmd(0x02);
     3cc:	82 e0       	ldi	r24, 0x02	; 2
     3ce:	0e 94 d3 01 	call	0x3a6	; 0x3a6 <lcd_send_cmd>
     3d2:	8f e1       	ldi	r24, 0x1F	; 31
     3d4:	9e e4       	ldi	r25, 0x4E	; 78
     3d6:	01 97       	sbiw	r24, 0x01	; 1
     3d8:	f1 f7       	brne	.-4      	; 0x3d6 <lcd_return_home+0xa>
     3da:	00 c0       	rjmp	.+0      	; 0x3dc <lcd_return_home+0x10>
     3dc:	00 00       	nop
     3de:	08 95       	ret

000003e0 <lcd_entry_mode_set>:
	_delay_ms(5);
}
void lcd_entry_mode_set(char id, char sh){
	//Direção do cursor e pisca display
	char cmd = 0x04;
	if(id)cmd |= 0x02;
     3e0:	81 11       	cpse	r24, r1
     3e2:	02 c0       	rjmp	.+4      	; 0x3e8 <lcd_entry_mode_set+0x8>
	lcd_send_cmd(0x02);
	_delay_ms(5);
}
void lcd_entry_mode_set(char id, char sh){
	//Direção do cursor e pisca display
	char cmd = 0x04;
     3e4:	84 e0       	ldi	r24, 0x04	; 4
     3e6:	01 c0       	rjmp	.+2      	; 0x3ea <lcd_entry_mode_set+0xa>
	if(id)cmd |= 0x02;
     3e8:	86 e0       	ldi	r24, 0x06	; 6
	if(sh)cmd |= 0x01;
     3ea:	61 11       	cpse	r22, r1
     3ec:	81 60       	ori	r24, 0x01	; 1
	lcd_send_cmd(cmd);
     3ee:	0e 94 d3 01 	call	0x3a6	; 0x3a6 <lcd_send_cmd>
     3f2:	8f e3       	ldi	r24, 0x3F	; 63
     3f4:	9f e1       	ldi	r25, 0x1F	; 31
     3f6:	01 97       	sbiw	r24, 0x01	; 1
     3f8:	f1 f7       	brne	.-4      	; 0x3f6 <lcd_entry_mode_set+0x16>
     3fa:	00 c0       	rjmp	.+0      	; 0x3fc <lcd_entry_mode_set+0x1c>
     3fc:	00 00       	nop
     3fe:	08 95       	ret

00000400 <lcd_display_control>:
	_delay_ms(2);
}
void lcd_display_control(char display, char cursor, char pisca){
	//Auto esplicativo. Display/cursor e pisca do cursor ligado/desligado,
	char cmd = 0x08;
	if(display)cmd |= 0x04;
     400:	81 11       	cpse	r24, r1
     402:	02 c0       	rjmp	.+4      	; 0x408 <lcd_display_control+0x8>
	lcd_send_cmd(cmd);
	_delay_ms(2);
}
void lcd_display_control(char display, char cursor, char pisca){
	//Auto esplicativo. Display/cursor e pisca do cursor ligado/desligado,
	char cmd = 0x08;
     404:	88 e0       	ldi	r24, 0x08	; 8
     406:	01 c0       	rjmp	.+2      	; 0x40a <lcd_display_control+0xa>
	if(display)cmd |= 0x04;
     408:	8c e0       	ldi	r24, 0x0C	; 12
	if(cursor)cmd |= 0x02;
     40a:	61 11       	cpse	r22, r1
     40c:	82 60       	ori	r24, 0x02	; 2
	if(pisca)cmd |= 0x01;
     40e:	41 11       	cpse	r20, r1
     410:	81 60       	ori	r24, 0x01	; 1
	lcd_send_cmd(cmd);
     412:	0e 94 d3 01 	call	0x3a6	; 0x3a6 <lcd_send_cmd>
     416:	8f e3       	ldi	r24, 0x3F	; 63
     418:	9f e1       	ldi	r25, 0x1F	; 31
     41a:	01 97       	sbiw	r24, 0x01	; 1
     41c:	f1 f7       	brne	.-4      	; 0x41a <lcd_display_control+0x1a>
     41e:	00 c0       	rjmp	.+0      	; 0x420 <lcd_display_control+0x20>
     420:	00 00       	nop
     422:	08 95       	ret

00000424 <lcd_function_set>:
	_delay_us(50);
}
void lcd_function_set(char data_len, char nr_linhas, char fonte){
	//Data_len define o tamanho do barramento. nr de linhas explicativo (normalmente 1) e fonte escolhe entre 5x11 e 5x8 (normalmente 0)
	char cmd = 0x20;
	if(data_len)cmd |= 0x10;
     424:	81 11       	cpse	r24, r1
     426:	02 c0       	rjmp	.+4      	; 0x42c <lcd_function_set+0x8>
	lcd_send_cmd(cmd);
	_delay_us(50);
}
void lcd_function_set(char data_len, char nr_linhas, char fonte){
	//Data_len define o tamanho do barramento. nr de linhas explicativo (normalmente 1) e fonte escolhe entre 5x11 e 5x8 (normalmente 0)
	char cmd = 0x20;
     428:	80 e2       	ldi	r24, 0x20	; 32
     42a:	01 c0       	rjmp	.+2      	; 0x42e <lcd_function_set+0xa>
	if(data_len)cmd |= 0x10;
     42c:	80 e3       	ldi	r24, 0x30	; 48
	if(nr_linhas)cmd |= 0x08;
     42e:	61 11       	cpse	r22, r1
     430:	88 60       	ori	r24, 0x08	; 8
	if(fonte)cmd |= 0x04;
     432:	41 11       	cpse	r20, r1
     434:	84 60       	ori	r24, 0x04	; 4
	lcd_send_cmd(cmd);
     436:	0e 94 d3 01 	call	0x3a6	; 0x3a6 <lcd_send_cmd>
	#else
		//round up by default
		__ticks_dc = (uint32_t)(ceil(fabs(__tmp)));
	#endif

	__builtin_avr_delay_cycles(__ticks_dc);
     43a:	87 ec       	ldi	r24, 0xC7	; 199
     43c:	90 e0       	ldi	r25, 0x00	; 0
     43e:	01 97       	sbiw	r24, 0x01	; 1
     440:	f1 f7       	brne	.-4      	; 0x43e <lcd_function_set+0x1a>
     442:	00 c0       	rjmp	.+0      	; 0x444 <lcd_function_set+0x20>
     444:	00 00       	nop
     446:	08 95       	ret

00000448 <lcd_set_CGRAM_addr>:
	_delay_us(50);
}
void lcd_set_CGRAM_addr(char addr){
	lcd_send_cmd(0x40|(addr&0x3F));
     448:	8f 73       	andi	r24, 0x3F	; 63
     44a:	80 64       	ori	r24, 0x40	; 64
     44c:	0e 94 d3 01 	call	0x3a6	; 0x3a6 <lcd_send_cmd>
     450:	87 ec       	ldi	r24, 0xC7	; 199
     452:	90 e0       	ldi	r25, 0x00	; 0
     454:	01 97       	sbiw	r24, 0x01	; 1
     456:	f1 f7       	brne	.-4      	; 0x454 <lcd_set_CGRAM_addr+0xc>
     458:	00 c0       	rjmp	.+0      	; 0x45a <lcd_set_CGRAM_addr+0x12>
     45a:	00 00       	nop
     45c:	08 95       	ret

0000045e <lcd_set_DDRAM_addr>:
	_delay_us(50);
}
void lcd_set_DDRAM_addr(char addr){
	lcd_send_cmd(0x80|(addr&0x7F));
     45e:	80 68       	ori	r24, 0x80	; 128
     460:	0e 94 d3 01 	call	0x3a6	; 0x3a6 <lcd_send_cmd>
     464:	87 ec       	ldi	r24, 0xC7	; 199
     466:	90 e0       	ldi	r25, 0x00	; 0
     468:	01 97       	sbiw	r24, 0x01	; 1
     46a:	f1 f7       	brne	.-4      	; 0x468 <lcd_set_DDRAM_addr+0xa>
     46c:	00 c0       	rjmp	.+0      	; 0x46e <lcd_set_DDRAM_addr+0x10>
     46e:	00 00       	nop
     470:	08 95       	ret

00000472 <lcd_init>:
	_delay_us(50);
}
// Espero que nao precise saber o estado da busy flag :P
void lcd_init(){
     472:	0f 93       	push	r16
     474:	1f 93       	push	r17
     476:	cf 93       	push	r28
     478:	df 93       	push	r29
	lcd_inicializar_pinos(); 
     47a:	0e 94 bc 01 	call	0x378	; 0x378 <lcd_inicializar_pinos>
	#else
		//round up by default
		__ticks_dc = (uint32_t)(ceil(fabs(__tmp)));
	#endif

	__builtin_avr_delay_cycles(__ticks_dc);
     47e:	2f ef       	ldi	r18, 0xFF	; 255
     480:	81 ee       	ldi	r24, 0xE1	; 225
     482:	94 e0       	ldi	r25, 0x04	; 4
     484:	21 50       	subi	r18, 0x01	; 1
     486:	80 40       	sbci	r24, 0x00	; 0
     488:	90 40       	sbci	r25, 0x00	; 0
     48a:	e1 f7       	brne	.-8      	; 0x484 <lcd_init+0x12>
     48c:	00 c0       	rjmp	.+0      	; 0x48e <lcd_init+0x1c>
     48e:	00 00       	nop
	_delay_ms(100);
	lcd_instr_pin();
     490:	0e 94 96 01 	call	0x32c	; 0x32c <lcd_instr_pin>
	lcd_write_4bit(0x03); //equivalente à mandar 0x30, pois estamos com apenas 4 bits
     494:	83 e0       	ldi	r24, 0x03	; 3
     496:	0e 94 a7 01 	call	0x34e	; 0x34e <lcd_write_4bit>
	lcd_pulse_e();
     49a:	0e 94 98 01 	call	0x330	; 0x330 <lcd_pulse_e>
     49e:	8f e3       	ldi	r24, 0x3F	; 63
     4a0:	9c e9       	ldi	r25, 0x9C	; 156
     4a2:	01 97       	sbiw	r24, 0x01	; 1
     4a4:	f1 f7       	brne	.-4      	; 0x4a2 <lcd_init+0x30>
     4a6:	00 c0       	rjmp	.+0      	; 0x4a8 <lcd_init+0x36>
     4a8:	00 00       	nop
	_delay_ms(10);
	lcd_instr_pin();
     4aa:	0e 94 96 01 	call	0x32c	; 0x32c <lcd_instr_pin>
	lcd_write_4bit(0x03);
     4ae:	83 e0       	ldi	r24, 0x03	; 3
     4b0:	0e 94 a7 01 	call	0x34e	; 0x34e <lcd_write_4bit>
	lcd_pulse_e();
     4b4:	0e 94 98 01 	call	0x330	; 0x330 <lcd_pulse_e>
     4b8:	8f e9       	ldi	r24, 0x9F	; 159
     4ba:	9f e0       	ldi	r25, 0x0F	; 15
     4bc:	01 97       	sbiw	r24, 0x01	; 1
     4be:	f1 f7       	brne	.-4      	; 0x4bc <lcd_init+0x4a>
     4c0:	00 c0       	rjmp	.+0      	; 0x4c2 <lcd_init+0x50>
     4c2:	00 00       	nop
	_delay_ms(1);
	lcd_instr_pin();
     4c4:	0e 94 96 01 	call	0x32c	; 0x32c <lcd_instr_pin>
	lcd_write_4bit(0x03);
     4c8:	83 e0       	ldi	r24, 0x03	; 3
     4ca:	0e 94 a7 01 	call	0x34e	; 0x34e <lcd_write_4bit>
	lcd_pulse_e();
     4ce:	0e 94 98 01 	call	0x330	; 0x330 <lcd_pulse_e>
     4d2:	8f e9       	ldi	r24, 0x9F	; 159
     4d4:	9f e0       	ldi	r25, 0x0F	; 15
     4d6:	01 97       	sbiw	r24, 0x01	; 1
     4d8:	f1 f7       	brne	.-4      	; 0x4d6 <lcd_init+0x64>
     4da:	00 c0       	rjmp	.+0      	; 0x4dc <lcd_init+0x6a>
     4dc:	00 00       	nop
	_delay_ms(1);
	lcd_instr_pin();
     4de:	0e 94 96 01 	call	0x32c	; 0x32c <lcd_instr_pin>
	lcd_write_4bit(0x02);//Finalmente selecionando 4 pinos (0x20)
     4e2:	82 e0       	ldi	r24, 0x02	; 2
     4e4:	0e 94 a7 01 	call	0x34e	; 0x34e <lcd_write_4bit>
	lcd_pulse_e();
     4e8:	0e 94 98 01 	call	0x330	; 0x330 <lcd_pulse_e>
     4ec:	8f e9       	ldi	r24, 0x9F	; 159
     4ee:	9f e0       	ldi	r25, 0x0F	; 15
     4f0:	01 97       	sbiw	r24, 0x01	; 1
     4f2:	f1 f7       	brne	.-4      	; 0x4f0 <lcd_init+0x7e>
     4f4:	00 c0       	rjmp	.+0      	; 0x4f6 <lcd_init+0x84>
     4f6:	00 00       	nop
	_delay_ms(1); 
	//Fim das funções de inicialização básicas (que nao sao necessarias em caso de 8 bits)
	lcd_function_set(0,1,0); // 4 bit, 2 linhas, 5x8
     4f8:	40 e0       	ldi	r20, 0x00	; 0
     4fa:	61 e0       	ldi	r22, 0x01	; 1
     4fc:	80 e0       	ldi	r24, 0x00	; 0
     4fe:	0e 94 12 02 	call	0x424	; 0x424 <lcd_function_set>
	lcd_display_control(1,1,1);//display e cursor ligados ligado, sem pisca
     502:	41 e0       	ldi	r20, 0x01	; 1
     504:	61 e0       	ldi	r22, 0x01	; 1
     506:	81 e0       	ldi	r24, 0x01	; 1
     508:	0e 94 00 02 	call	0x400	; 0x400 <lcd_display_control>
	lcd_entry_mode_set(1,0);
     50c:	60 e0       	ldi	r22, 0x00	; 0
     50e:	81 e0       	ldi	r24, 0x01	; 1
     510:	0e 94 f0 01 	call	0x3e0	; 0x3e0 <lcd_entry_mode_set>
	lcd_clear_screen();
     514:	0e 94 dc 01 	call	0x3b8	; 0x3b8 <lcd_clear_screen>
	lcd_return_home();
     518:	0e 94 e6 01 	call	0x3cc	; 0x3cc <lcd_return_home>
	lcd_set_CGRAM_addr(0);
     51c:	80 e0       	ldi	r24, 0x00	; 0
     51e:	0e 94 24 02 	call	0x448	; 0x448 <lcd_set_CGRAM_addr>
     522:	c4 e9       	ldi	r28, 0x94	; 148
     524:	d1 e0       	ldi	r29, 0x01	; 1
void lcd_set_DDRAM_addr(char addr){
	lcd_send_cmd(0x80|(addr&0x7F));
	_delay_us(50);
}
// Espero que nao precise saber o estado da busy flag :P
void lcd_init(){
     526:	04 ed       	ldi	r16, 0xD4	; 212
     528:	11 e0       	ldi	r17, 0x01	; 1
	lcd_entry_mode_set(1,0);
	lcd_clear_screen();
	lcd_return_home();
	lcd_set_CGRAM_addr(0);
	for(int i=0;i<64;i++){
		lcd_send_data(LCD_ESPECIAIS[i]);
     52a:	89 91       	ld	r24, Y+
     52c:	0e 94 ca 01 	call	0x394	; 0x394 <lcd_send_data>
     530:	8f e9       	ldi	r24, 0x9F	; 159
     532:	9f e0       	ldi	r25, 0x0F	; 15
     534:	01 97       	sbiw	r24, 0x01	; 1
     536:	f1 f7       	brne	.-4      	; 0x534 <lcd_init+0xc2>
     538:	00 c0       	rjmp	.+0      	; 0x53a <lcd_init+0xc8>
     53a:	00 00       	nop
	lcd_display_control(1,1,1);//display e cursor ligados ligado, sem pisca
	lcd_entry_mode_set(1,0);
	lcd_clear_screen();
	lcd_return_home();
	lcd_set_CGRAM_addr(0);
	for(int i=0;i<64;i++){
     53c:	c0 17       	cp	r28, r16
     53e:	d1 07       	cpc	r29, r17
     540:	a1 f7       	brne	.-24     	; 0x52a <lcd_init+0xb8>
		lcd_send_data(LCD_ESPECIAIS[i]);
		_delay_ms(1);
	}	
	lcd_set_DDRAM_addr(0);
     542:	80 e0       	ldi	r24, 0x00	; 0
     544:	0e 94 2f 02 	call	0x45e	; 0x45e <lcd_set_DDRAM_addr>
	LCD_OPERACAO = 0;
     548:	10 92 59 06 	sts	0x0659, r1
     54c:	10 92 58 06 	sts	0x0658, r1
	LCD_ESTAGIO = 0;
     550:	10 92 e0 06 	sts	0x06E0, r1
     554:	10 92 df 06 	sts	0x06DF, r1
     558:	a1 e3       	ldi	r26, 0x31	; 49
     55a:	b6 e0       	ldi	r27, 0x06	; 6
     55c:	e1 e4       	ldi	r30, 0x41	; 65
     55e:	f6 e0       	ldi	r31, 0x06	; 6
void lcd_set_DDRAM_addr(char addr){
	lcd_send_cmd(0x80|(addr&0x7F));
	_delay_us(50);
}
// Espero que nao precise saber o estado da busy flag :P
void lcd_init(){
     560:	81 e5       	ldi	r24, 0x51	; 81
     562:	96 e0       	ldi	r25, 0x06	; 6
	}	
	lcd_set_DDRAM_addr(0);
	LCD_OPERACAO = 0;
	LCD_ESTAGIO = 0;
	for(int i=0;i<16;i++){
		LCD_BACKBUFFER[0][i] = ' ';
     564:	20 e2       	ldi	r18, 0x20	; 32
     566:	2d 93       	st	X+, r18
		LCD_BACKBUFFER[1][i] = ' ';
     568:	21 93       	st	Z+, r18
		_delay_ms(1);
	}	
	lcd_set_DDRAM_addr(0);
	LCD_OPERACAO = 0;
	LCD_ESTAGIO = 0;
	for(int i=0;i<16;i++){
     56a:	e8 17       	cp	r30, r24
     56c:	f9 07       	cpc	r31, r25
     56e:	d9 f7       	brne	.-10     	; 0x566 <lcd_init+0xf4>
		LCD_BACKBUFFER[0][i] = ' ';
		LCD_BACKBUFFER[1][i] = ' ';
	}
	LCD_CURSOR[0] = 0;
     570:	10 92 55 06 	sts	0x0655, r1
	LCD_CURSOR[1] = 0;
     574:	10 92 56 06 	sts	0x0656, r1
	//Agora configuramos o relogio e as interrupcoes.
	//Como o tempo de operação minimo é 50us, o clock pode ter as suas bordas com esta duração
	//Portanto, TIMER0 vai ser interrompido a cada 50us e vai executar alguma coisa
	TCCR0A = (1<<WGM01)|(1<<WGM00);//Modo Fast PWM, interrompendo com OCRA
     578:	83 e0       	ldi	r24, 0x03	; 3
     57a:	84 bd       	out	0x24, r24	; 36
	TCCR0B = (1<<WGM02)|(1<<CS01);// CLK = 16MHz/8 = 2MHz (0.5us)
     57c:	8a e0       	ldi	r24, 0x0A	; 10
     57e:	85 bd       	out	0x25, r24	; 37
	OCR0A = 100;// periodo=0.5us*100 = 50us
     580:	84 e6       	ldi	r24, 0x64	; 100
     582:	87 bd       	out	0x27, r24	; 39
	TIMSK0 = (1<<TOIE0);//Interrupcoes de overflow abilitadas
     584:	81 e0       	ldi	r24, 0x01	; 1
     586:	80 93 6e 00 	sts	0x006E, r24
	sei();//Interrupcoes globais habilitadas
     58a:	78 94       	sei
}
     58c:	df 91       	pop	r29
     58e:	cf 91       	pop	r28
     590:	1f 91       	pop	r17
     592:	0f 91       	pop	r16
     594:	08 95       	ret

00000596 <__vector_16>:
ISR(TIMER0_OVF_vect){
     596:	1f 92       	push	r1
     598:	0f 92       	push	r0
     59a:	0f b6       	in	r0, 0x3f	; 63
     59c:	0f 92       	push	r0
     59e:	11 24       	eor	r1, r1
     5a0:	1f 93       	push	r17
     5a2:	2f 93       	push	r18
     5a4:	3f 93       	push	r19
     5a6:	4f 93       	push	r20
     5a8:	5f 93       	push	r21
     5aa:	6f 93       	push	r22
     5ac:	7f 93       	push	r23
     5ae:	8f 93       	push	r24
     5b0:	9f 93       	push	r25
     5b2:	af 93       	push	r26
     5b4:	bf 93       	push	r27
     5b6:	cf 93       	push	r28
     5b8:	df 93       	push	r29
     5ba:	ef 93       	push	r30
     5bc:	ff 93       	push	r31
	if(LCD_OPERACAO==0){// goto 0,0 -> instr 0x80
     5be:	80 91 58 06 	lds	r24, 0x0658
     5c2:	90 91 59 06 	lds	r25, 0x0659
     5c6:	00 97       	sbiw	r24, 0x00	; 0
     5c8:	09 f0       	breq	.+2      	; 0x5cc <__vector_16+0x36>
     5ca:	6b c0       	rjmp	.+214    	; 0x6a2 <__vector_16+0x10c>
		switch(LCD_ESTAGIO){
     5cc:	80 91 df 06 	lds	r24, 0x06DF
     5d0:	90 91 e0 06 	lds	r25, 0x06E0
     5d4:	83 30       	cpi	r24, 0x03	; 3
     5d6:	91 05       	cpc	r25, r1
     5d8:	b1 f1       	breq	.+108    	; 0x646 <__vector_16+0xb0>
     5da:	3c f4       	brge	.+14     	; 0x5ea <__vector_16+0x54>
     5dc:	81 30       	cpi	r24, 0x01	; 1
     5de:	91 05       	cpc	r25, r1
     5e0:	e1 f0       	breq	.+56     	; 0x61a <__vector_16+0x84>
     5e2:	34 f5       	brge	.+76     	; 0x630 <__vector_16+0x9a>
     5e4:	89 2b       	or	r24, r25
     5e6:	51 f0       	breq	.+20     	; 0x5fc <__vector_16+0x66>
     5e8:	cf c2       	rjmp	.+1438   	; 0xb88 <__stack+0x289>
     5ea:	85 30       	cpi	r24, 0x05	; 5
     5ec:	91 05       	cpc	r25, r1
     5ee:	09 f4       	brne	.+2      	; 0x5f2 <__vector_16+0x5c>
     5f0:	42 c0       	rjmp	.+132    	; 0x676 <__vector_16+0xe0>
     5f2:	b4 f1       	brlt	.+108    	; 0x660 <__vector_16+0xca>
     5f4:	06 97       	sbiw	r24, 0x06	; 6
     5f6:	09 f0       	breq	.+2      	; 0x5fa <__vector_16+0x64>
     5f8:	c7 c2       	rjmp	.+1422   	; 0xb88 <__stack+0x289>
     5fa:	48 c0       	rjmp	.+144    	; 0x68c <__vector_16+0xf6>
			case 0: lcd_instr_pin();lcd_write_4bit(0x08);LCD_ESTAGIO++;break;
     5fc:	0e 94 96 01 	call	0x32c	; 0x32c <lcd_instr_pin>
     600:	88 e0       	ldi	r24, 0x08	; 8
     602:	0e 94 a7 01 	call	0x34e	; 0x34e <lcd_write_4bit>
     606:	80 91 df 06 	lds	r24, 0x06DF
     60a:	90 91 e0 06 	lds	r25, 0x06E0
     60e:	01 96       	adiw	r24, 0x01	; 1
     610:	90 93 e0 06 	sts	0x06E0, r25
     614:	80 93 df 06 	sts	0x06DF, r24
     618:	b7 c2       	rjmp	.+1390   	; 0xb88 <__stack+0x289>
}
void lcd_instr_pin(){
	PORTD &=~(1<<5);
}
inline void lcd_high_e(){
	PORTD |= (1<<7);
     61a:	5f 9a       	sbi	0x0b, 7	; 11
}
ISR(TIMER0_OVF_vect){
	if(LCD_OPERACAO==0){// goto 0,0 -> instr 0x80
		switch(LCD_ESTAGIO){
			case 0: lcd_instr_pin();lcd_write_4bit(0x08);LCD_ESTAGIO++;break;
			case 1: lcd_high_e();LCD_ESTAGIO++;break;
     61c:	80 91 df 06 	lds	r24, 0x06DF
     620:	90 91 e0 06 	lds	r25, 0x06E0
     624:	01 96       	adiw	r24, 0x01	; 1
     626:	90 93 e0 06 	sts	0x06E0, r25
     62a:	80 93 df 06 	sts	0x06DF, r24
     62e:	ac c2       	rjmp	.+1368   	; 0xb88 <__stack+0x289>
}
inline void lcd_high_e(){
	PORTD |= (1<<7);
}
inline void lcd_low_e(){
	PORTD &=~(1<<7);
     630:	5f 98       	cbi	0x0b, 7	; 11
ISR(TIMER0_OVF_vect){
	if(LCD_OPERACAO==0){// goto 0,0 -> instr 0x80
		switch(LCD_ESTAGIO){
			case 0: lcd_instr_pin();lcd_write_4bit(0x08);LCD_ESTAGIO++;break;
			case 1: lcd_high_e();LCD_ESTAGIO++;break;
			case 2: lcd_low_e();LCD_ESTAGIO++;break;
     632:	80 91 df 06 	lds	r24, 0x06DF
     636:	90 91 e0 06 	lds	r25, 0x06E0
     63a:	01 96       	adiw	r24, 0x01	; 1
     63c:	90 93 e0 06 	sts	0x06E0, r25
     640:	80 93 df 06 	sts	0x06DF, r24
     644:	a1 c2       	rjmp	.+1346   	; 0xb88 <__stack+0x289>
			case 3: lcd_write_4bit(0x00);LCD_ESTAGIO++;break;
     646:	80 e0       	ldi	r24, 0x00	; 0
     648:	0e 94 a7 01 	call	0x34e	; 0x34e <lcd_write_4bit>
     64c:	80 91 df 06 	lds	r24, 0x06DF
     650:	90 91 e0 06 	lds	r25, 0x06E0
     654:	01 96       	adiw	r24, 0x01	; 1
     656:	90 93 e0 06 	sts	0x06E0, r25
     65a:	80 93 df 06 	sts	0x06DF, r24
     65e:	94 c2       	rjmp	.+1320   	; 0xb88 <__stack+0x289>
}
void lcd_instr_pin(){
	PORTD &=~(1<<5);
}
inline void lcd_high_e(){
	PORTD |= (1<<7);
     660:	5f 9a       	sbi	0x0b, 7	; 11
		switch(LCD_ESTAGIO){
			case 0: lcd_instr_pin();lcd_write_4bit(0x08);LCD_ESTAGIO++;break;
			case 1: lcd_high_e();LCD_ESTAGIO++;break;
			case 2: lcd_low_e();LCD_ESTAGIO++;break;
			case 3: lcd_write_4bit(0x00);LCD_ESTAGIO++;break;
			case 4: lcd_high_e();LCD_ESTAGIO++;break;
     662:	80 91 df 06 	lds	r24, 0x06DF
     666:	90 91 e0 06 	lds	r25, 0x06E0
     66a:	01 96       	adiw	r24, 0x01	; 1
     66c:	90 93 e0 06 	sts	0x06E0, r25
     670:	80 93 df 06 	sts	0x06DF, r24
     674:	89 c2       	rjmp	.+1298   	; 0xb88 <__stack+0x289>
}
inline void lcd_high_e(){
	PORTD |= (1<<7);
}
inline void lcd_low_e(){
	PORTD &=~(1<<7);
     676:	5f 98       	cbi	0x0b, 7	; 11
			case 0: lcd_instr_pin();lcd_write_4bit(0x08);LCD_ESTAGIO++;break;
			case 1: lcd_high_e();LCD_ESTAGIO++;break;
			case 2: lcd_low_e();LCD_ESTAGIO++;break;
			case 3: lcd_write_4bit(0x00);LCD_ESTAGIO++;break;
			case 4: lcd_high_e();LCD_ESTAGIO++;break;
			case 5: lcd_low_e();LCD_ESTAGIO++;break;
     678:	80 91 df 06 	lds	r24, 0x06DF
     67c:	90 91 e0 06 	lds	r25, 0x06E0
     680:	01 96       	adiw	r24, 0x01	; 1
     682:	90 93 e0 06 	sts	0x06E0, r25
     686:	80 93 df 06 	sts	0x06DF, r24
     68a:	7e c2       	rjmp	.+1276   	; 0xb88 <__stack+0x289>
			case 6: LCD_OPERACAO++; LCD_ESTAGIO=0;break;
     68c:	81 e0       	ldi	r24, 0x01	; 1
     68e:	90 e0       	ldi	r25, 0x00	; 0
     690:	90 93 59 06 	sts	0x0659, r25
     694:	80 93 58 06 	sts	0x0658, r24
     698:	10 92 e0 06 	sts	0x06E0, r1
     69c:	10 92 df 06 	sts	0x06DF, r1
     6a0:	73 c2       	rjmp	.+1254   	; 0xb88 <__stack+0x289>
		}
	}else if(LCD_OPERACAO<17){// Mandar dados da primeira linha
     6a2:	81 31       	cpi	r24, 0x11	; 17
     6a4:	91 05       	cpc	r25, r1
     6a6:	0c f0       	brlt	.+2      	; 0x6aa <__vector_16+0x114>
     6a8:	78 c0       	rjmp	.+240    	; 0x79a <__vector_16+0x204>
		switch(LCD_ESTAGIO){
     6aa:	20 91 df 06 	lds	r18, 0x06DF
     6ae:	30 91 e0 06 	lds	r19, 0x06E0
     6b2:	23 30       	cpi	r18, 0x03	; 3
     6b4:	31 05       	cpc	r19, r1
     6b6:	09 f4       	brne	.+2      	; 0x6ba <__vector_16+0x124>
     6b8:	40 c0       	rjmp	.+128    	; 0x73a <__vector_16+0x1a4>
     6ba:	3c f4       	brge	.+14     	; 0x6ca <__vector_16+0x134>
     6bc:	21 30       	cpi	r18, 0x01	; 1
     6be:	31 05       	cpc	r19, r1
     6c0:	31 f1       	breq	.+76     	; 0x70e <__vector_16+0x178>
     6c2:	84 f5       	brge	.+96     	; 0x724 <__vector_16+0x18e>
     6c4:	23 2b       	or	r18, r19
     6c6:	61 f0       	breq	.+24     	; 0x6e0 <__vector_16+0x14a>
     6c8:	5f c2       	rjmp	.+1214   	; 0xb88 <__stack+0x289>
     6ca:	25 30       	cpi	r18, 0x05	; 5
     6cc:	31 05       	cpc	r19, r1
     6ce:	09 f4       	brne	.+2      	; 0x6d2 <__vector_16+0x13c>
     6d0:	4f c0       	rjmp	.+158    	; 0x770 <__vector_16+0x1da>
     6d2:	0c f4       	brge	.+2      	; 0x6d6 <__vector_16+0x140>
     6d4:	42 c0       	rjmp	.+132    	; 0x75a <__vector_16+0x1c4>
     6d6:	26 30       	cpi	r18, 0x06	; 6
     6d8:	31 05       	cpc	r19, r1
     6da:	09 f0       	breq	.+2      	; 0x6de <__vector_16+0x148>
     6dc:	55 c2       	rjmp	.+1194   	; 0xb88 <__stack+0x289>
     6de:	53 c0       	rjmp	.+166    	; 0x786 <__vector_16+0x1f0>
			case 0: lcd_data_pin();lcd_write_4bit(LCD_BACKBUFFER[0][LCD_OPERACAO-1]>>4);LCD_ESTAGIO++;break;
     6e0:	0e 94 94 01 	call	0x328	; 0x328 <lcd_data_pin>
     6e4:	e0 91 58 06 	lds	r30, 0x0658
     6e8:	f0 91 59 06 	lds	r31, 0x0659
     6ec:	e0 5d       	subi	r30, 0xD0	; 208
     6ee:	f9 4f       	sbci	r31, 0xF9	; 249
     6f0:	80 81       	ld	r24, Z
     6f2:	82 95       	swap	r24
     6f4:	8f 70       	andi	r24, 0x0F	; 15
     6f6:	0e 94 a7 01 	call	0x34e	; 0x34e <lcd_write_4bit>
     6fa:	80 91 df 06 	lds	r24, 0x06DF
     6fe:	90 91 e0 06 	lds	r25, 0x06E0
     702:	01 96       	adiw	r24, 0x01	; 1
     704:	90 93 e0 06 	sts	0x06E0, r25
     708:	80 93 df 06 	sts	0x06DF, r24
     70c:	3d c2       	rjmp	.+1146   	; 0xb88 <__stack+0x289>
}
void lcd_instr_pin(){
	PORTD &=~(1<<5);
}
inline void lcd_high_e(){
	PORTD |= (1<<7);
     70e:	5f 9a       	sbi	0x0b, 7	; 11
			case 6: LCD_OPERACAO++; LCD_ESTAGIO=0;break;
		}
	}else if(LCD_OPERACAO<17){// Mandar dados da primeira linha
		switch(LCD_ESTAGIO){
			case 0: lcd_data_pin();lcd_write_4bit(LCD_BACKBUFFER[0][LCD_OPERACAO-1]>>4);LCD_ESTAGIO++;break;
			case 1: lcd_high_e();LCD_ESTAGIO++;break;
     710:	80 91 df 06 	lds	r24, 0x06DF
     714:	90 91 e0 06 	lds	r25, 0x06E0
     718:	01 96       	adiw	r24, 0x01	; 1
     71a:	90 93 e0 06 	sts	0x06E0, r25
     71e:	80 93 df 06 	sts	0x06DF, r24
     722:	32 c2       	rjmp	.+1124   	; 0xb88 <__stack+0x289>
}
inline void lcd_high_e(){
	PORTD |= (1<<7);
}
inline void lcd_low_e(){
	PORTD &=~(1<<7);
     724:	5f 98       	cbi	0x0b, 7	; 11
		}
	}else if(LCD_OPERACAO<17){// Mandar dados da primeira linha
		switch(LCD_ESTAGIO){
			case 0: lcd_data_pin();lcd_write_4bit(LCD_BACKBUFFER[0][LCD_OPERACAO-1]>>4);LCD_ESTAGIO++;break;
			case 1: lcd_high_e();LCD_ESTAGIO++;break;
			case 2: lcd_low_e();LCD_ESTAGIO++;break;
     726:	80 91 df 06 	lds	r24, 0x06DF
     72a:	90 91 e0 06 	lds	r25, 0x06E0
     72e:	01 96       	adiw	r24, 0x01	; 1
     730:	90 93 e0 06 	sts	0x06E0, r25
     734:	80 93 df 06 	sts	0x06DF, r24
     738:	27 c2       	rjmp	.+1102   	; 0xb88 <__stack+0x289>
			case 3: lcd_write_4bit(LCD_BACKBUFFER[0][LCD_OPERACAO-1]);LCD_ESTAGIO++;break;
     73a:	fc 01       	movw	r30, r24
     73c:	e0 5d       	subi	r30, 0xD0	; 208
     73e:	f9 4f       	sbci	r31, 0xF9	; 249
     740:	80 81       	ld	r24, Z
     742:	0e 94 a7 01 	call	0x34e	; 0x34e <lcd_write_4bit>
     746:	80 91 df 06 	lds	r24, 0x06DF
     74a:	90 91 e0 06 	lds	r25, 0x06E0
     74e:	01 96       	adiw	r24, 0x01	; 1
     750:	90 93 e0 06 	sts	0x06E0, r25
     754:	80 93 df 06 	sts	0x06DF, r24
     758:	17 c2       	rjmp	.+1070   	; 0xb88 <__stack+0x289>
}
void lcd_instr_pin(){
	PORTD &=~(1<<5);
}
inline void lcd_high_e(){
	PORTD |= (1<<7);
     75a:	5f 9a       	sbi	0x0b, 7	; 11
		switch(LCD_ESTAGIO){
			case 0: lcd_data_pin();lcd_write_4bit(LCD_BACKBUFFER[0][LCD_OPERACAO-1]>>4);LCD_ESTAGIO++;break;
			case 1: lcd_high_e();LCD_ESTAGIO++;break;
			case 2: lcd_low_e();LCD_ESTAGIO++;break;
			case 3: lcd_write_4bit(LCD_BACKBUFFER[0][LCD_OPERACAO-1]);LCD_ESTAGIO++;break;
			case 4: lcd_high_e();LCD_ESTAGIO++;break;
     75c:	80 91 df 06 	lds	r24, 0x06DF
     760:	90 91 e0 06 	lds	r25, 0x06E0
     764:	01 96       	adiw	r24, 0x01	; 1
     766:	90 93 e0 06 	sts	0x06E0, r25
     76a:	80 93 df 06 	sts	0x06DF, r24
     76e:	0c c2       	rjmp	.+1048   	; 0xb88 <__stack+0x289>
}
inline void lcd_high_e(){
	PORTD |= (1<<7);
}
inline void lcd_low_e(){
	PORTD &=~(1<<7);
     770:	5f 98       	cbi	0x0b, 7	; 11
			case 0: lcd_data_pin();lcd_write_4bit(LCD_BACKBUFFER[0][LCD_OPERACAO-1]>>4);LCD_ESTAGIO++;break;
			case 1: lcd_high_e();LCD_ESTAGIO++;break;
			case 2: lcd_low_e();LCD_ESTAGIO++;break;
			case 3: lcd_write_4bit(LCD_BACKBUFFER[0][LCD_OPERACAO-1]);LCD_ESTAGIO++;break;
			case 4: lcd_high_e();LCD_ESTAGIO++;break;
			case 5: lcd_low_e();LCD_ESTAGIO++;break;
     772:	80 91 df 06 	lds	r24, 0x06DF
     776:	90 91 e0 06 	lds	r25, 0x06E0
     77a:	01 96       	adiw	r24, 0x01	; 1
     77c:	90 93 e0 06 	sts	0x06E0, r25
     780:	80 93 df 06 	sts	0x06DF, r24
     784:	01 c2       	rjmp	.+1026   	; 0xb88 <__stack+0x289>
			case 6: LCD_OPERACAO++; LCD_ESTAGIO=0;break;
     786:	01 96       	adiw	r24, 0x01	; 1
     788:	90 93 59 06 	sts	0x0659, r25
     78c:	80 93 58 06 	sts	0x0658, r24
     790:	10 92 e0 06 	sts	0x06E0, r1
     794:	10 92 df 06 	sts	0x06DF, r1
     798:	f7 c1       	rjmp	.+1006   	; 0xb88 <__stack+0x289>
		}
	}else if(LCD_OPERACAO==17){// goto 1,0 -> instr 0xC0
     79a:	81 31       	cpi	r24, 0x11	; 17
     79c:	91 05       	cpc	r25, r1
     79e:	09 f0       	breq	.+2      	; 0x7a2 <__vector_16+0x20c>
     7a0:	6b c0       	rjmp	.+214    	; 0x878 <__vector_16+0x2e2>
		switch(LCD_ESTAGIO){
     7a2:	80 91 df 06 	lds	r24, 0x06DF
     7a6:	90 91 e0 06 	lds	r25, 0x06E0
     7aa:	83 30       	cpi	r24, 0x03	; 3
     7ac:	91 05       	cpc	r25, r1
     7ae:	b1 f1       	breq	.+108    	; 0x81c <__vector_16+0x286>
     7b0:	3c f4       	brge	.+14     	; 0x7c0 <__vector_16+0x22a>
     7b2:	81 30       	cpi	r24, 0x01	; 1
     7b4:	91 05       	cpc	r25, r1
     7b6:	e1 f0       	breq	.+56     	; 0x7f0 <__vector_16+0x25a>
     7b8:	34 f5       	brge	.+76     	; 0x806 <__vector_16+0x270>
     7ba:	89 2b       	or	r24, r25
     7bc:	51 f0       	breq	.+20     	; 0x7d2 <__vector_16+0x23c>
     7be:	e4 c1       	rjmp	.+968    	; 0xb88 <__stack+0x289>
     7c0:	85 30       	cpi	r24, 0x05	; 5
     7c2:	91 05       	cpc	r25, r1
     7c4:	09 f4       	brne	.+2      	; 0x7c8 <__vector_16+0x232>
     7c6:	42 c0       	rjmp	.+132    	; 0x84c <__vector_16+0x2b6>
     7c8:	b4 f1       	brlt	.+108    	; 0x836 <__vector_16+0x2a0>
     7ca:	06 97       	sbiw	r24, 0x06	; 6
     7cc:	09 f0       	breq	.+2      	; 0x7d0 <__vector_16+0x23a>
     7ce:	dc c1       	rjmp	.+952    	; 0xb88 <__stack+0x289>
     7d0:	48 c0       	rjmp	.+144    	; 0x862 <__vector_16+0x2cc>
			case 0: lcd_instr_pin();lcd_write_4bit(0x0C);LCD_ESTAGIO++;break;
     7d2:	0e 94 96 01 	call	0x32c	; 0x32c <lcd_instr_pin>
     7d6:	8c e0       	ldi	r24, 0x0C	; 12
     7d8:	0e 94 a7 01 	call	0x34e	; 0x34e <lcd_write_4bit>
     7dc:	80 91 df 06 	lds	r24, 0x06DF
     7e0:	90 91 e0 06 	lds	r25, 0x06E0
     7e4:	01 96       	adiw	r24, 0x01	; 1
     7e6:	90 93 e0 06 	sts	0x06E0, r25
     7ea:	80 93 df 06 	sts	0x06DF, r24
     7ee:	cc c1       	rjmp	.+920    	; 0xb88 <__stack+0x289>
}
void lcd_instr_pin(){
	PORTD &=~(1<<5);
}
inline void lcd_high_e(){
	PORTD |= (1<<7);
     7f0:	5f 9a       	sbi	0x0b, 7	; 11
			case 6: LCD_OPERACAO++; LCD_ESTAGIO=0;break;
		}
	}else if(LCD_OPERACAO==17){// goto 1,0 -> instr 0xC0
		switch(LCD_ESTAGIO){
			case 0: lcd_instr_pin();lcd_write_4bit(0x0C);LCD_ESTAGIO++;break;
			case 1: lcd_high_e();LCD_ESTAGIO++;break;
     7f2:	80 91 df 06 	lds	r24, 0x06DF
     7f6:	90 91 e0 06 	lds	r25, 0x06E0
     7fa:	01 96       	adiw	r24, 0x01	; 1
     7fc:	90 93 e0 06 	sts	0x06E0, r25
     800:	80 93 df 06 	sts	0x06DF, r24
     804:	c1 c1       	rjmp	.+898    	; 0xb88 <__stack+0x289>
}
inline void lcd_high_e(){
	PORTD |= (1<<7);
}
inline void lcd_low_e(){
	PORTD &=~(1<<7);
     806:	5f 98       	cbi	0x0b, 7	; 11
		}
	}else if(LCD_OPERACAO==17){// goto 1,0 -> instr 0xC0
		switch(LCD_ESTAGIO){
			case 0: lcd_instr_pin();lcd_write_4bit(0x0C);LCD_ESTAGIO++;break;
			case 1: lcd_high_e();LCD_ESTAGIO++;break;
			case 2: lcd_low_e();LCD_ESTAGIO++;break;
     808:	80 91 df 06 	lds	r24, 0x06DF
     80c:	90 91 e0 06 	lds	r25, 0x06E0
     810:	01 96       	adiw	r24, 0x01	; 1
     812:	90 93 e0 06 	sts	0x06E0, r25
     816:	80 93 df 06 	sts	0x06DF, r24
     81a:	b6 c1       	rjmp	.+876    	; 0xb88 <__stack+0x289>
			case 3: lcd_write_4bit(0x00);LCD_ESTAGIO++;break;
     81c:	80 e0       	ldi	r24, 0x00	; 0
     81e:	0e 94 a7 01 	call	0x34e	; 0x34e <lcd_write_4bit>
     822:	80 91 df 06 	lds	r24, 0x06DF
     826:	90 91 e0 06 	lds	r25, 0x06E0
     82a:	01 96       	adiw	r24, 0x01	; 1
     82c:	90 93 e0 06 	sts	0x06E0, r25
     830:	80 93 df 06 	sts	0x06DF, r24
     834:	a9 c1       	rjmp	.+850    	; 0xb88 <__stack+0x289>
}
void lcd_instr_pin(){
	PORTD &=~(1<<5);
}
inline void lcd_high_e(){
	PORTD |= (1<<7);
     836:	5f 9a       	sbi	0x0b, 7	; 11
		switch(LCD_ESTAGIO){
			case 0: lcd_instr_pin();lcd_write_4bit(0x0C);LCD_ESTAGIO++;break;
			case 1: lcd_high_e();LCD_ESTAGIO++;break;
			case 2: lcd_low_e();LCD_ESTAGIO++;break;
			case 3: lcd_write_4bit(0x00);LCD_ESTAGIO++;break;
			case 4: lcd_high_e();LCD_ESTAGIO++;break;
     838:	80 91 df 06 	lds	r24, 0x06DF
     83c:	90 91 e0 06 	lds	r25, 0x06E0
     840:	01 96       	adiw	r24, 0x01	; 1
     842:	90 93 e0 06 	sts	0x06E0, r25
     846:	80 93 df 06 	sts	0x06DF, r24
     84a:	9e c1       	rjmp	.+828    	; 0xb88 <__stack+0x289>
}
inline void lcd_high_e(){
	PORTD |= (1<<7);
}
inline void lcd_low_e(){
	PORTD &=~(1<<7);
     84c:	5f 98       	cbi	0x0b, 7	; 11
			case 0: lcd_instr_pin();lcd_write_4bit(0x0C);LCD_ESTAGIO++;break;
			case 1: lcd_high_e();LCD_ESTAGIO++;break;
			case 2: lcd_low_e();LCD_ESTAGIO++;break;
			case 3: lcd_write_4bit(0x00);LCD_ESTAGIO++;break;
			case 4: lcd_high_e();LCD_ESTAGIO++;break;
			case 5: lcd_low_e();LCD_ESTAGIO++;break;
     84e:	80 91 df 06 	lds	r24, 0x06DF
     852:	90 91 e0 06 	lds	r25, 0x06E0
     856:	01 96       	adiw	r24, 0x01	; 1
     858:	90 93 e0 06 	sts	0x06E0, r25
     85c:	80 93 df 06 	sts	0x06DF, r24
     860:	93 c1       	rjmp	.+806    	; 0xb88 <__stack+0x289>
			case 6: LCD_OPERACAO++; LCD_ESTAGIO=0;break;
     862:	82 e1       	ldi	r24, 0x12	; 18
     864:	90 e0       	ldi	r25, 0x00	; 0
     866:	90 93 59 06 	sts	0x0659, r25
     86a:	80 93 58 06 	sts	0x0658, r24
     86e:	10 92 e0 06 	sts	0x06E0, r1
     872:	10 92 df 06 	sts	0x06DF, r1
     876:	88 c1       	rjmp	.+784    	; 0xb88 <__stack+0x289>
		}
	}else if(LCD_OPERACAO<34){// Mandar dados da segunda linha
     878:	82 32       	cpi	r24, 0x22	; 34
     87a:	91 05       	cpc	r25, r1
     87c:	0c f0       	brlt	.+2      	; 0x880 <__vector_16+0x2ea>
     87e:	78 c0       	rjmp	.+240    	; 0x970 <__stack+0x71>
		switch(LCD_ESTAGIO){
     880:	20 91 df 06 	lds	r18, 0x06DF
     884:	30 91 e0 06 	lds	r19, 0x06E0
     888:	23 30       	cpi	r18, 0x03	; 3
     88a:	31 05       	cpc	r19, r1
     88c:	09 f4       	brne	.+2      	; 0x890 <__vector_16+0x2fa>
     88e:	40 c0       	rjmp	.+128    	; 0x910 <__stack+0x11>
     890:	3c f4       	brge	.+14     	; 0x8a0 <__vector_16+0x30a>
     892:	21 30       	cpi	r18, 0x01	; 1
     894:	31 05       	cpc	r19, r1
     896:	31 f1       	breq	.+76     	; 0x8e4 <__vector_16+0x34e>
     898:	84 f5       	brge	.+96     	; 0x8fa <__vector_16+0x364>
     89a:	23 2b       	or	r18, r19
     89c:	61 f0       	breq	.+24     	; 0x8b6 <__vector_16+0x320>
     89e:	74 c1       	rjmp	.+744    	; 0xb88 <__stack+0x289>
     8a0:	25 30       	cpi	r18, 0x05	; 5
     8a2:	31 05       	cpc	r19, r1
     8a4:	09 f4       	brne	.+2      	; 0x8a8 <__vector_16+0x312>
     8a6:	4f c0       	rjmp	.+158    	; 0x946 <__stack+0x47>
     8a8:	0c f4       	brge	.+2      	; 0x8ac <__vector_16+0x316>
     8aa:	42 c0       	rjmp	.+132    	; 0x930 <__stack+0x31>
     8ac:	26 30       	cpi	r18, 0x06	; 6
     8ae:	31 05       	cpc	r19, r1
     8b0:	09 f0       	breq	.+2      	; 0x8b4 <__vector_16+0x31e>
     8b2:	6a c1       	rjmp	.+724    	; 0xb88 <__stack+0x289>
     8b4:	53 c0       	rjmp	.+166    	; 0x95c <__stack+0x5d>
			case 0: lcd_data_pin();lcd_write_4bit(LCD_BACKBUFFER[1][LCD_OPERACAO-18]>>4);LCD_ESTAGIO++;break;
     8b6:	0e 94 94 01 	call	0x328	; 0x328 <lcd_data_pin>
     8ba:	e0 91 58 06 	lds	r30, 0x0658
     8be:	f0 91 59 06 	lds	r31, 0x0659
     8c2:	e1 5d       	subi	r30, 0xD1	; 209
     8c4:	f9 4f       	sbci	r31, 0xF9	; 249
     8c6:	80 81       	ld	r24, Z
     8c8:	82 95       	swap	r24
     8ca:	8f 70       	andi	r24, 0x0F	; 15
     8cc:	0e 94 a7 01 	call	0x34e	; 0x34e <lcd_write_4bit>
     8d0:	80 91 df 06 	lds	r24, 0x06DF
     8d4:	90 91 e0 06 	lds	r25, 0x06E0
     8d8:	01 96       	adiw	r24, 0x01	; 1
     8da:	90 93 e0 06 	sts	0x06E0, r25
     8de:	80 93 df 06 	sts	0x06DF, r24
     8e2:	52 c1       	rjmp	.+676    	; 0xb88 <__stack+0x289>
}
void lcd_instr_pin(){
	PORTD &=~(1<<5);
}
inline void lcd_high_e(){
	PORTD |= (1<<7);
     8e4:	5f 9a       	sbi	0x0b, 7	; 11
			case 6: LCD_OPERACAO++; LCD_ESTAGIO=0;break;
		}
	}else if(LCD_OPERACAO<34){// Mandar dados da segunda linha
		switch(LCD_ESTAGIO){
			case 0: lcd_data_pin();lcd_write_4bit(LCD_BACKBUFFER[1][LCD_OPERACAO-18]>>4);LCD_ESTAGIO++;break;
			case 1: lcd_high_e();LCD_ESTAGIO++;break;
     8e6:	80 91 df 06 	lds	r24, 0x06DF
     8ea:	90 91 e0 06 	lds	r25, 0x06E0
     8ee:	01 96       	adiw	r24, 0x01	; 1
     8f0:	90 93 e0 06 	sts	0x06E0, r25
     8f4:	80 93 df 06 	sts	0x06DF, r24
     8f8:	47 c1       	rjmp	.+654    	; 0xb88 <__stack+0x289>
}
inline void lcd_high_e(){
	PORTD |= (1<<7);
}
inline void lcd_low_e(){
	PORTD &=~(1<<7);
     8fa:	5f 98       	cbi	0x0b, 7	; 11
		}
	}else if(LCD_OPERACAO<34){// Mandar dados da segunda linha
		switch(LCD_ESTAGIO){
			case 0: lcd_data_pin();lcd_write_4bit(LCD_BACKBUFFER[1][LCD_OPERACAO-18]>>4);LCD_ESTAGIO++;break;
			case 1: lcd_high_e();LCD_ESTAGIO++;break;
			case 2: lcd_low_e();LCD_ESTAGIO++;break;
     8fc:	80 91 df 06 	lds	r24, 0x06DF
     900:	90 91 e0 06 	lds	r25, 0x06E0
     904:	01 96       	adiw	r24, 0x01	; 1
     906:	90 93 e0 06 	sts	0x06E0, r25
     90a:	80 93 df 06 	sts	0x06DF, r24
     90e:	3c c1       	rjmp	.+632    	; 0xb88 <__stack+0x289>
			case 3: lcd_write_4bit(LCD_BACKBUFFER[1][LCD_OPERACAO-18]);LCD_ESTAGIO++;break;
     910:	fc 01       	movw	r30, r24
     912:	e1 5d       	subi	r30, 0xD1	; 209
     914:	f9 4f       	sbci	r31, 0xF9	; 249
     916:	80 81       	ld	r24, Z
     918:	0e 94 a7 01 	call	0x34e	; 0x34e <lcd_write_4bit>
     91c:	80 91 df 06 	lds	r24, 0x06DF
     920:	90 91 e0 06 	lds	r25, 0x06E0
     924:	01 96       	adiw	r24, 0x01	; 1
     926:	90 93 e0 06 	sts	0x06E0, r25
     92a:	80 93 df 06 	sts	0x06DF, r24
     92e:	2c c1       	rjmp	.+600    	; 0xb88 <__stack+0x289>
}
void lcd_instr_pin(){
	PORTD &=~(1<<5);
}
inline void lcd_high_e(){
	PORTD |= (1<<7);
     930:	5f 9a       	sbi	0x0b, 7	; 11
		switch(LCD_ESTAGIO){
			case 0: lcd_data_pin();lcd_write_4bit(LCD_BACKBUFFER[1][LCD_OPERACAO-18]>>4);LCD_ESTAGIO++;break;
			case 1: lcd_high_e();LCD_ESTAGIO++;break;
			case 2: lcd_low_e();LCD_ESTAGIO++;break;
			case 3: lcd_write_4bit(LCD_BACKBUFFER[1][LCD_OPERACAO-18]);LCD_ESTAGIO++;break;
			case 4: lcd_high_e();LCD_ESTAGIO++;break;
     932:	80 91 df 06 	lds	r24, 0x06DF
     936:	90 91 e0 06 	lds	r25, 0x06E0
     93a:	01 96       	adiw	r24, 0x01	; 1
     93c:	90 93 e0 06 	sts	0x06E0, r25
     940:	80 93 df 06 	sts	0x06DF, r24
     944:	21 c1       	rjmp	.+578    	; 0xb88 <__stack+0x289>
}
inline void lcd_high_e(){
	PORTD |= (1<<7);
}
inline void lcd_low_e(){
	PORTD &=~(1<<7);
     946:	5f 98       	cbi	0x0b, 7	; 11
			case 0: lcd_data_pin();lcd_write_4bit(LCD_BACKBUFFER[1][LCD_OPERACAO-18]>>4);LCD_ESTAGIO++;break;
			case 1: lcd_high_e();LCD_ESTAGIO++;break;
			case 2: lcd_low_e();LCD_ESTAGIO++;break;
			case 3: lcd_write_4bit(LCD_BACKBUFFER[1][LCD_OPERACAO-18]);LCD_ESTAGIO++;break;
			case 4: lcd_high_e();LCD_ESTAGIO++;break;
			case 5: lcd_low_e();LCD_ESTAGIO++;break;
     948:	80 91 df 06 	lds	r24, 0x06DF
     94c:	90 91 e0 06 	lds	r25, 0x06E0
     950:	01 96       	adiw	r24, 0x01	; 1
     952:	90 93 e0 06 	sts	0x06E0, r25
     956:	80 93 df 06 	sts	0x06DF, r24
     95a:	16 c1       	rjmp	.+556    	; 0xb88 <__stack+0x289>
			case 6: LCD_OPERACAO++; LCD_ESTAGIO=0;break;
     95c:	01 96       	adiw	r24, 0x01	; 1
     95e:	90 93 59 06 	sts	0x0659, r25
     962:	80 93 58 06 	sts	0x0658, r24
     966:	10 92 e0 06 	sts	0x06E0, r1
     96a:	10 92 df 06 	sts	0x06DF, r1
     96e:	0c c1       	rjmp	.+536    	; 0xb88 <__stack+0x289>
		}
	}else if(LCD_OPERACAO==34){// goto CURSOR -> instr 0x80 | (0x40) | coluna
     970:	82 32       	cpi	r24, 0x22	; 34
     972:	91 05       	cpc	r25, r1
     974:	09 f0       	breq	.+2      	; 0x978 <__stack+0x79>
     976:	94 c0       	rjmp	.+296    	; 0xaa0 <__stack+0x1a1>
		switch(LCD_ESTAGIO){
     978:	80 91 df 06 	lds	r24, 0x06DF
     97c:	90 91 e0 06 	lds	r25, 0x06E0
     980:	83 30       	cpi	r24, 0x03	; 3
     982:	91 05       	cpc	r25, r1
     984:	09 f4       	brne	.+2      	; 0x988 <__stack+0x89>
     986:	5d c0       	rjmp	.+186    	; 0xa42 <__stack+0x143>
     988:	4c f4       	brge	.+18     	; 0x99c <__stack+0x9d>
     98a:	81 30       	cpi	r24, 0x01	; 1
     98c:	91 05       	cpc	r25, r1
     98e:	09 f4       	brne	.+2      	; 0x992 <__stack+0x93>
     990:	42 c0       	rjmp	.+132    	; 0xa16 <__stack+0x117>
     992:	0c f0       	brlt	.+2      	; 0x996 <__stack+0x97>
     994:	4b c0       	rjmp	.+150    	; 0xa2c <__stack+0x12d>
     996:	89 2b       	or	r24, r25
     998:	59 f0       	breq	.+22     	; 0x9b0 <__stack+0xb1>
     99a:	f6 c0       	rjmp	.+492    	; 0xb88 <__stack+0x289>
     99c:	85 30       	cpi	r24, 0x05	; 5
     99e:	91 05       	cpc	r25, r1
     9a0:	09 f4       	brne	.+2      	; 0x9a4 <__stack+0xa5>
     9a2:	68 c0       	rjmp	.+208    	; 0xa74 <__stack+0x175>
     9a4:	0c f4       	brge	.+2      	; 0x9a8 <__stack+0xa9>
     9a6:	5b c0       	rjmp	.+182    	; 0xa5e <__stack+0x15f>
     9a8:	06 97       	sbiw	r24, 0x06	; 6
     9aa:	09 f0       	breq	.+2      	; 0x9ae <__stack+0xaf>
     9ac:	ed c0       	rjmp	.+474    	; 0xb88 <__stack+0x289>
     9ae:	6d c0       	rjmp	.+218    	; 0xa8a <__stack+0x18b>
			case 0: 
				if(LCD_CURSOR[0]==0){
     9b0:	80 91 55 06 	lds	r24, 0x0655
     9b4:	81 11       	cpse	r24, r1
     9b6:	0f c0       	rjmp	.+30     	; 0x9d6 <__stack+0xd7>
					lcd_instr_pin();lcd_write_4bit(0x08);LCD_ESTAGIO++;break;
     9b8:	0e 94 96 01 	call	0x32c	; 0x32c <lcd_instr_pin>
     9bc:	88 e0       	ldi	r24, 0x08	; 8
     9be:	0e 94 a7 01 	call	0x34e	; 0x34e <lcd_write_4bit>
     9c2:	80 91 df 06 	lds	r24, 0x06DF
     9c6:	90 91 e0 06 	lds	r25, 0x06E0
     9ca:	01 96       	adiw	r24, 0x01	; 1
     9cc:	90 93 e0 06 	sts	0x06E0, r25
     9d0:	80 93 df 06 	sts	0x06DF, r24
     9d4:	d9 c0       	rjmp	.+434    	; 0xb88 <__stack+0x289>
				}else if(LCD_CURSOR[0]==1){
     9d6:	81 30       	cpi	r24, 0x01	; 1
     9d8:	79 f4       	brne	.+30     	; 0x9f8 <__stack+0xf9>
					lcd_instr_pin();lcd_write_4bit(0x0C);LCD_ESTAGIO++;break;
     9da:	0e 94 96 01 	call	0x32c	; 0x32c <lcd_instr_pin>
     9de:	8c e0       	ldi	r24, 0x0C	; 12
     9e0:	0e 94 a7 01 	call	0x34e	; 0x34e <lcd_write_4bit>
     9e4:	80 91 df 06 	lds	r24, 0x06DF
     9e8:	90 91 e0 06 	lds	r25, 0x06E0
     9ec:	01 96       	adiw	r24, 0x01	; 1
     9ee:	90 93 e0 06 	sts	0x06E0, r25
     9f2:	80 93 df 06 	sts	0x06DF, r24
     9f6:	c8 c0       	rjmp	.+400    	; 0xb88 <__stack+0x289>
				}else{
					lcd_instr_pin();lcd_write_4bit(0x0B);LCD_ESTAGIO++;break;
     9f8:	0e 94 96 01 	call	0x32c	; 0x32c <lcd_instr_pin>
     9fc:	8b e0       	ldi	r24, 0x0B	; 11
     9fe:	0e 94 a7 01 	call	0x34e	; 0x34e <lcd_write_4bit>
     a02:	80 91 df 06 	lds	r24, 0x06DF
     a06:	90 91 e0 06 	lds	r25, 0x06E0
     a0a:	01 96       	adiw	r24, 0x01	; 1
     a0c:	90 93 e0 06 	sts	0x06E0, r25
     a10:	80 93 df 06 	sts	0x06DF, r24
     a14:	b9 c0       	rjmp	.+370    	; 0xb88 <__stack+0x289>
}
void lcd_instr_pin(){
	PORTD &=~(1<<5);
}
inline void lcd_high_e(){
	PORTD |= (1<<7);
     a16:	5f 9a       	sbi	0x0b, 7	; 11
				}else if(LCD_CURSOR[0]==1){
					lcd_instr_pin();lcd_write_4bit(0x0C);LCD_ESTAGIO++;break;
				}else{
					lcd_instr_pin();lcd_write_4bit(0x0B);LCD_ESTAGIO++;break;
				}
			case 1: lcd_high_e();LCD_ESTAGIO++;break;
     a18:	80 91 df 06 	lds	r24, 0x06DF
     a1c:	90 91 e0 06 	lds	r25, 0x06E0
     a20:	01 96       	adiw	r24, 0x01	; 1
     a22:	90 93 e0 06 	sts	0x06E0, r25
     a26:	80 93 df 06 	sts	0x06DF, r24
     a2a:	ae c0       	rjmp	.+348    	; 0xb88 <__stack+0x289>
}
inline void lcd_high_e(){
	PORTD |= (1<<7);
}
inline void lcd_low_e(){
	PORTD &=~(1<<7);
     a2c:	5f 98       	cbi	0x0b, 7	; 11
					lcd_instr_pin();lcd_write_4bit(0x0C);LCD_ESTAGIO++;break;
				}else{
					lcd_instr_pin();lcd_write_4bit(0x0B);LCD_ESTAGIO++;break;
				}
			case 1: lcd_high_e();LCD_ESTAGIO++;break;
			case 2: lcd_low_e();LCD_ESTAGIO++;break;
     a2e:	80 91 df 06 	lds	r24, 0x06DF
     a32:	90 91 e0 06 	lds	r25, 0x06E0
     a36:	01 96       	adiw	r24, 0x01	; 1
     a38:	90 93 e0 06 	sts	0x06E0, r25
     a3c:	80 93 df 06 	sts	0x06DF, r24
     a40:	a3 c0       	rjmp	.+326    	; 0xb88 <__stack+0x289>
			case 3: lcd_write_4bit(LCD_CURSOR[1]);LCD_ESTAGIO++;break;
     a42:	80 91 56 06 	lds	r24, 0x0656
     a46:	0e 94 a7 01 	call	0x34e	; 0x34e <lcd_write_4bit>
     a4a:	80 91 df 06 	lds	r24, 0x06DF
     a4e:	90 91 e0 06 	lds	r25, 0x06E0
     a52:	01 96       	adiw	r24, 0x01	; 1
     a54:	90 93 e0 06 	sts	0x06E0, r25
     a58:	80 93 df 06 	sts	0x06DF, r24
     a5c:	95 c0       	rjmp	.+298    	; 0xb88 <__stack+0x289>
}
void lcd_instr_pin(){
	PORTD &=~(1<<5);
}
inline void lcd_high_e(){
	PORTD |= (1<<7);
     a5e:	5f 9a       	sbi	0x0b, 7	; 11
					lcd_instr_pin();lcd_write_4bit(0x0B);LCD_ESTAGIO++;break;
				}
			case 1: lcd_high_e();LCD_ESTAGIO++;break;
			case 2: lcd_low_e();LCD_ESTAGIO++;break;
			case 3: lcd_write_4bit(LCD_CURSOR[1]);LCD_ESTAGIO++;break;
			case 4: lcd_high_e();LCD_ESTAGIO++;break;
     a60:	80 91 df 06 	lds	r24, 0x06DF
     a64:	90 91 e0 06 	lds	r25, 0x06E0
     a68:	01 96       	adiw	r24, 0x01	; 1
     a6a:	90 93 e0 06 	sts	0x06E0, r25
     a6e:	80 93 df 06 	sts	0x06DF, r24
     a72:	8a c0       	rjmp	.+276    	; 0xb88 <__stack+0x289>
}
inline void lcd_high_e(){
	PORTD |= (1<<7);
}
inline void lcd_low_e(){
	PORTD &=~(1<<7);
     a74:	5f 98       	cbi	0x0b, 7	; 11
				}
			case 1: lcd_high_e();LCD_ESTAGIO++;break;
			case 2: lcd_low_e();LCD_ESTAGIO++;break;
			case 3: lcd_write_4bit(LCD_CURSOR[1]);LCD_ESTAGIO++;break;
			case 4: lcd_high_e();LCD_ESTAGIO++;break;
			case 5: lcd_low_e();LCD_ESTAGIO++;break;
     a76:	80 91 df 06 	lds	r24, 0x06DF
     a7a:	90 91 e0 06 	lds	r25, 0x06E0
     a7e:	01 96       	adiw	r24, 0x01	; 1
     a80:	90 93 e0 06 	sts	0x06E0, r25
     a84:	80 93 df 06 	sts	0x06DF, r24
     a88:	7f c0       	rjmp	.+254    	; 0xb88 <__stack+0x289>
			case 6: LCD_OPERACAO++; LCD_ESTAGIO=0;break;
     a8a:	83 e2       	ldi	r24, 0x23	; 35
     a8c:	90 e0       	ldi	r25, 0x00	; 0
     a8e:	90 93 59 06 	sts	0x0659, r25
     a92:	80 93 58 06 	sts	0x0658, r24
     a96:	10 92 e0 06 	sts	0x06E0, r1
     a9a:	10 92 df 06 	sts	0x06DF, r1
     a9e:	74 c0       	rjmp	.+232    	; 0xb88 <__stack+0x289>
		}
	}else{
		LCD_OPERACAO++;
     aa0:	01 96       	adiw	r24, 0x01	; 1
		if(LCD_OPERACAO>=3000){
     aa2:	88 3b       	cpi	r24, 0xB8	; 184
     aa4:	2b e0       	ldi	r18, 0x0B	; 11
     aa6:	92 07       	cpc	r25, r18
     aa8:	2c f4       	brge	.+10     	; 0xab4 <__stack+0x1b5>
			case 4: lcd_high_e();LCD_ESTAGIO++;break;
			case 5: lcd_low_e();LCD_ESTAGIO++;break;
			case 6: LCD_OPERACAO++; LCD_ESTAGIO=0;break;
		}
	}else{
		LCD_OPERACAO++;
     aaa:	90 93 59 06 	sts	0x0659, r25
     aae:	80 93 58 06 	sts	0x0658, r24
     ab2:	6a c0       	rjmp	.+212    	; 0xb88 <__stack+0x289>
		if(LCD_OPERACAO>=3000){
			LCD_OPERACAO=0;
     ab4:	10 92 59 06 	sts	0x0659, r1
     ab8:	10 92 58 06 	sts	0x0658, r1
			LCD_ESTAGIO=0;
     abc:	10 92 e0 06 	sts	0x06E0, r1
     ac0:	10 92 df 06 	sts	0x06DF, r1
			if(LCD_TAM_MENSAGEM>0){
     ac4:	10 91 5a 06 	lds	r17, 0x065A
     ac8:	11 23       	and	r17, r17
     aca:	09 f4       	brne	.+2      	; 0xace <__stack+0x1cf>
     acc:	3f c0       	rjmp	.+126    	; 0xb4c <__stack+0x24d>
				LCD_MSG_COUNTER++;
     ace:	80 91 26 06 	lds	r24, 0x0626
     ad2:	8f 5f       	subi	r24, 0xFF	; 255
     ad4:	80 93 26 06 	sts	0x0626, r24
				if(LCD_MSG_COUNTER >= LCD_MSG_DIV){
     ad8:	83 30       	cpi	r24, 0x03	; 3
     ada:	c0 f1       	brcs	.+112    	; 0xb4c <__stack+0x24d>
					char i;
					LCD_MSG_ATUAL++;
     adc:	80 91 27 06 	lds	r24, 0x0627
     ae0:	8f 5f       	subi	r24, 0xFF	; 255
					if(LCD_MSG_ATUAL>=LCD_TAM_MENSAGEM)LCD_MSG_ATUAL = 0;
     ae2:	81 17       	cp	r24, r17
     ae4:	18 f4       	brcc	.+6      	; 0xaec <__stack+0x1ed>
			LCD_ESTAGIO=0;
			if(LCD_TAM_MENSAGEM>0){
				LCD_MSG_COUNTER++;
				if(LCD_MSG_COUNTER >= LCD_MSG_DIV){
					char i;
					LCD_MSG_ATUAL++;
     ae6:	80 93 27 06 	sts	0x0627, r24
     aea:	02 c0       	rjmp	.+4      	; 0xaf0 <__stack+0x1f1>
					if(LCD_MSG_ATUAL>=LCD_TAM_MENSAGEM)LCD_MSG_ATUAL = 0;
     aec:	10 92 27 06 	sts	0x0627, r1
					for(i=0;i<LCD_MSG_POS[2];i++)
     af0:	c0 91 2a 06 	lds	r28, 0x062A
     af4:	cc 23       	and	r28, r28
     af6:	41 f1       	breq	.+80     	; 0xb48 <__stack+0x249>
						LCD_BACKBUFFER[LCD_MSG_POS[0]][LCD_MSG_POS[1]+i] = LCD_MENSAGEM[(LCD_MSG_ATUAL+i)%LCD_TAM_MENSAGEM];
     af8:	80 91 28 06 	lds	r24, 0x0628
     afc:	40 91 29 06 	lds	r20, 0x0629
	TCCR0B = (1<<WGM02)|(1<<CS01);// CLK = 16MHz/8 = 2MHz (0.5us)
	OCR0A = 100;// periodo=0.5us*100 = 50us
	TIMSK0 = (1<<TOIE0);//Interrupcoes de overflow abilitadas
	sei();//Interrupcoes globais habilitadas
}
ISR(TIMER0_OVF_vect){
     b00:	20 e1       	ldi	r18, 0x10	; 16
     b02:	82 9f       	mul	r24, r18
     b04:	c0 01       	movw	r24, r0
     b06:	11 24       	eor	r1, r1
				if(LCD_MSG_COUNTER >= LCD_MSG_DIV){
					char i;
					LCD_MSG_ATUAL++;
					if(LCD_MSG_ATUAL>=LCD_TAM_MENSAGEM)LCD_MSG_ATUAL = 0;
					for(i=0;i<LCD_MSG_POS[2];i++)
						LCD_BACKBUFFER[LCD_MSG_POS[0]][LCD_MSG_POS[1]+i] = LCD_MENSAGEM[(LCD_MSG_ATUAL+i)%LCD_TAM_MENSAGEM];
     b08:	50 e0       	ldi	r21, 0x00	; 0
	TCCR0B = (1<<WGM02)|(1<<CS01);// CLK = 16MHz/8 = 2MHz (0.5us)
	OCR0A = 100;// periodo=0.5us*100 = 50us
	TIMSK0 = (1<<TOIE0);//Interrupcoes de overflow abilitadas
	sei();//Interrupcoes globais habilitadas
}
ISR(TIMER0_OVF_vect){
     b0a:	fc 01       	movw	r30, r24
     b0c:	e4 0f       	add	r30, r20
     b0e:	f5 1f       	adc	r31, r21
     b10:	ef 5c       	subi	r30, 0xCF	; 207
     b12:	f9 4f       	sbci	r31, 0xF9	; 249
     b14:	20 91 27 06 	lds	r18, 0x0627
     b18:	30 e0       	ldi	r19, 0x00	; 0
     b1a:	24 1b       	sub	r18, r20
     b1c:	35 0b       	sbc	r19, r21
     b1e:	28 1b       	sub	r18, r24
     b20:	39 0b       	sbc	r19, r25
     b22:	40 e0       	ldi	r20, 0x00	; 0
     b24:	21 53       	subi	r18, 0x31	; 49
     b26:	36 40       	sbci	r19, 0x06	; 6
				if(LCD_MSG_COUNTER >= LCD_MSG_DIV){
					char i;
					LCD_MSG_ATUAL++;
					if(LCD_MSG_ATUAL>=LCD_TAM_MENSAGEM)LCD_MSG_ATUAL = 0;
					for(i=0;i<LCD_MSG_POS[2];i++)
						LCD_BACKBUFFER[LCD_MSG_POS[0]][LCD_MSG_POS[1]+i] = LCD_MENSAGEM[(LCD_MSG_ATUAL+i)%LCD_TAM_MENSAGEM];
     b28:	d0 e0       	ldi	r29, 0x00	; 0
	TCCR0B = (1<<WGM02)|(1<<CS01);// CLK = 16MHz/8 = 2MHz (0.5us)
	OCR0A = 100;// periodo=0.5us*100 = 50us
	TIMSK0 = (1<<TOIE0);//Interrupcoes de overflow abilitadas
	sei();//Interrupcoes globais habilitadas
}
ISR(TIMER0_OVF_vect){
     b2a:	c9 01       	movw	r24, r18
     b2c:	8e 0f       	add	r24, r30
     b2e:	9f 1f       	adc	r25, r31
				if(LCD_MSG_COUNTER >= LCD_MSG_DIV){
					char i;
					LCD_MSG_ATUAL++;
					if(LCD_MSG_ATUAL>=LCD_TAM_MENSAGEM)LCD_MSG_ATUAL = 0;
					for(i=0;i<LCD_MSG_POS[2];i++)
						LCD_BACKBUFFER[LCD_MSG_POS[0]][LCD_MSG_POS[1]+i] = LCD_MENSAGEM[(LCD_MSG_ATUAL+i)%LCD_TAM_MENSAGEM];
     b30:	61 2f       	mov	r22, r17
     b32:	7d 2f       	mov	r23, r29
     b34:	0e 94 ff 15 	call	0x2bfe	; 0x2bfe <__divmodhi4>
     b38:	dc 01       	movw	r26, r24
     b3a:	a5 5a       	subi	r26, 0xA5	; 165
     b3c:	b9 4f       	sbci	r27, 0xF9	; 249
     b3e:	8c 91       	ld	r24, X
     b40:	81 93       	st	Z+, r24
				LCD_MSG_COUNTER++;
				if(LCD_MSG_COUNTER >= LCD_MSG_DIV){
					char i;
					LCD_MSG_ATUAL++;
					if(LCD_MSG_ATUAL>=LCD_TAM_MENSAGEM)LCD_MSG_ATUAL = 0;
					for(i=0;i<LCD_MSG_POS[2];i++)
     b42:	4f 5f       	subi	r20, 0xFF	; 255
     b44:	4c 17       	cp	r20, r28
     b46:	88 f3       	brcs	.-30     	; 0xb2a <__stack+0x22b>
						LCD_BACKBUFFER[LCD_MSG_POS[0]][LCD_MSG_POS[1]+i] = LCD_MENSAGEM[(LCD_MSG_ATUAL+i)%LCD_TAM_MENSAGEM];
					LCD_MSG_COUNTER = 0;
     b48:	10 92 26 06 	sts	0x0626, r1
				}					
			}
			if(estado_aquecedor()){
     b4c:	0e 94 76 00 	call	0xec	; 0xec <estado_aquecedor>
     b50:	88 23       	and	r24, r24
     b52:	21 f0       	breq	.+8      	; 0xb5c <__stack+0x25d>
				LCD_BACKBUFFER[0][15] = 0x0C;
     b54:	8c e0       	ldi	r24, 0x0C	; 12
     b56:	80 93 40 06 	sts	0x0640, r24
     b5a:	03 c0       	rjmp	.+6      	; 0xb62 <__stack+0x263>
			}else{
				LCD_BACKBUFFER[0][15] = ' ';
     b5c:	80 e2       	ldi	r24, 0x20	; 32
     b5e:	80 93 40 06 	sts	0x0640, r24
			}
			if(estado_motor()==2){
     b62:	0e 94 88 00 	call	0x110	; 0x110 <estado_motor>
     b66:	82 30       	cpi	r24, 0x02	; 2
     b68:	21 f4       	brne	.+8      	; 0xb72 <__stack+0x273>
				LCD_BACKBUFFER[1][15] = 0x0D;
     b6a:	8d e0       	ldi	r24, 0x0D	; 13
     b6c:	80 93 50 06 	sts	0x0650, r24
     b70:	0b c0       	rjmp	.+22     	; 0xb88 <__stack+0x289>
			}else if(estado_motor()==1){
     b72:	0e 94 88 00 	call	0x110	; 0x110 <estado_motor>
     b76:	81 30       	cpi	r24, 0x01	; 1
     b78:	21 f4       	brne	.+8      	; 0xb82 <__stack+0x283>
				LCD_BACKBUFFER[1][15] = 0x0E;
     b7a:	8e e0       	ldi	r24, 0x0E	; 14
     b7c:	80 93 50 06 	sts	0x0650, r24
     b80:	03 c0       	rjmp	.+6      	; 0xb88 <__stack+0x289>
			}else{
				LCD_BACKBUFFER[1][15] = ' ';
     b82:	80 e2       	ldi	r24, 0x20	; 32
     b84:	80 93 50 06 	sts	0x0650, r24
			}
		}
	}
}
     b88:	ff 91       	pop	r31
     b8a:	ef 91       	pop	r30
     b8c:	df 91       	pop	r29
     b8e:	cf 91       	pop	r28
     b90:	bf 91       	pop	r27
     b92:	af 91       	pop	r26
     b94:	9f 91       	pop	r25
     b96:	8f 91       	pop	r24
     b98:	7f 91       	pop	r23
     b9a:	6f 91       	pop	r22
     b9c:	5f 91       	pop	r21
     b9e:	4f 91       	pop	r20
     ba0:	3f 91       	pop	r19
     ba2:	2f 91       	pop	r18
     ba4:	1f 91       	pop	r17
     ba6:	0f 90       	pop	r0
     ba8:	0f be       	out	0x3f, r0	; 63
     baa:	0f 90       	pop	r0
     bac:	1f 90       	pop	r1
     bae:	18 95       	reti

00000bb0 <lcd_print_str>:
	coluna &= 0x0F;
	lcd_set_DDRAM_addr((linha<<6)|coluna);
}*/
void lcd_print_str(char l, char c, char *str){
	char o = 0;
	while(str[o]!=0 && c<16){
     bb0:	fa 01       	movw	r30, r20
     bb2:	20 81       	ld	r18, Z
     bb4:	22 23       	and	r18, r18
     bb6:	99 f0       	breq	.+38     	; 0xbde <lcd_print_str+0x2e>
     bb8:	60 31       	cpi	r22, 0x10	; 16
     bba:	88 f4       	brcc	.+34     	; 0xbde <lcd_print_str+0x2e>
void lcd_goto(char linha, char coluna){
	linha &= 0x01;
	coluna &= 0x0F;
	lcd_set_DDRAM_addr((linha<<6)|coluna);
}*/
void lcd_print_str(char l, char c, char *str){
     bbc:	31 96       	adiw	r30, 0x01	; 1
	char o = 0;
	while(str[o]!=0 && c<16){
		LCD_BACKBUFFER[l][c] = str[o];
     bbe:	30 e1       	ldi	r19, 0x10	; 16
     bc0:	83 9f       	mul	r24, r19
     bc2:	c0 01       	movw	r24, r0
     bc4:	11 24       	eor	r1, r1
     bc6:	dc 01       	movw	r26, r24
     bc8:	a6 0f       	add	r26, r22
     bca:	b1 1d       	adc	r27, r1
     bcc:	af 5c       	subi	r26, 0xCF	; 207
     bce:	b9 4f       	sbci	r27, 0xF9	; 249
     bd0:	2c 93       	st	X, r18
		c++;
     bd2:	6f 5f       	subi	r22, 0xFF	; 255
	coluna &= 0x0F;
	lcd_set_DDRAM_addr((linha<<6)|coluna);
}*/
void lcd_print_str(char l, char c, char *str){
	char o = 0;
	while(str[o]!=0 && c<16){
     bd4:	21 91       	ld	r18, Z+
     bd6:	22 23       	and	r18, r18
     bd8:	11 f0       	breq	.+4      	; 0xbde <lcd_print_str+0x2e>
     bda:	60 31       	cpi	r22, 0x10	; 16
     bdc:	a1 f7       	brne	.-24     	; 0xbc6 <lcd_print_str+0x16>
     bde:	08 95       	ret

00000be0 <lcd_print_int>:
		LCD_BACKBUFFER[l][c] = str[o];
		c++;
		o++;
	}
}
void lcd_print_int(char l, char c, int x){
     be0:	ff 92       	push	r15
     be2:	0f 93       	push	r16
     be4:	1f 93       	push	r17
     be6:	cf 93       	push	r28
     be8:	df 93       	push	r29
     bea:	c8 2f       	mov	r28, r24
     bec:	f6 2e       	mov	r15, r22
     bee:	fa 01       	movw	r30, r20
	int div;
	if(x<0){
     bf0:	ff 23       	and	r31, r31
     bf2:	74 f4       	brge	.+28     	; 0xc10 <lcd_print_int+0x30>
		LCD_BACKBUFFER[l][c] = '-';
     bf4:	80 e1       	ldi	r24, 0x10	; 16
     bf6:	c8 9f       	mul	r28, r24
     bf8:	d0 01       	movw	r26, r0
     bfa:	11 24       	eor	r1, r1
     bfc:	a6 0f       	add	r26, r22
     bfe:	b1 1d       	adc	r27, r1
     c00:	af 5c       	subi	r26, 0xCF	; 207
     c02:	b9 4f       	sbci	r27, 0xF9	; 249
     c04:	8d e2       	ldi	r24, 0x2D	; 45
     c06:	8c 93       	st	X, r24
		c++;
     c08:	f3 94       	inc	r15
		x = -x;
     c0a:	f1 95       	neg	r31
     c0c:	e1 95       	neg	r30
     c0e:	f1 09       	sbc	r31, r1
	}
	if(x==0){
     c10:	30 97       	sbiw	r30, 0x00	; 0
     c12:	39 f0       	breq	.+14     	; 0xc22 <lcd_print_int+0x42>
		LCD_BACKBUFFER[l][c] = '0';
		return;
	}
	for(div=10000;div>x;div/=10);
     c14:	e0 31       	cpi	r30, 0x10	; 16
     c16:	87 e2       	ldi	r24, 0x27	; 39
     c18:	f8 07       	cpc	r31, r24
     c1a:	74 f0       	brlt	.+28     	; 0xc38 <lcd_print_int+0x58>
     c1c:	20 e1       	ldi	r18, 0x10	; 16
     c1e:	37 e2       	ldi	r19, 0x27	; 39
     c20:	1a c0       	rjmp	.+52     	; 0xc56 <lcd_print_int+0x76>
		LCD_BACKBUFFER[l][c] = '-';
		c++;
		x = -x;
	}
	if(x==0){
		LCD_BACKBUFFER[l][c] = '0';
     c22:	80 e1       	ldi	r24, 0x10	; 16
     c24:	c8 9f       	mul	r28, r24
     c26:	e0 01       	movw	r28, r0
     c28:	11 24       	eor	r1, r1
     c2a:	cf 0d       	add	r28, r15
     c2c:	d1 1d       	adc	r29, r1
     c2e:	cf 5c       	subi	r28, 0xCF	; 207
     c30:	d9 4f       	sbci	r29, 0xF9	; 249
     c32:	80 e3       	ldi	r24, 0x30	; 48
     c34:	88 83       	st	Y, r24
		return;
     c36:	2c c0       	rjmp	.+88     	; 0xc90 <lcd_print_int+0xb0>
	}
	for(div=10000;div>x;div/=10);
     c38:	20 e1       	ldi	r18, 0x10	; 16
     c3a:	37 e2       	ldi	r19, 0x27	; 39
     c3c:	0a e0       	ldi	r16, 0x0A	; 10
     c3e:	10 e0       	ldi	r17, 0x00	; 0
     c40:	c9 01       	movw	r24, r18
     c42:	b8 01       	movw	r22, r16
     c44:	0e 94 ff 15 	call	0x2bfe	; 0x2bfe <__divmodhi4>
     c48:	9b 01       	movw	r18, r22
     c4a:	e6 17       	cp	r30, r22
     c4c:	f7 07       	cpc	r31, r23
     c4e:	c4 f3       	brlt	.-16     	; 0xc40 <lcd_print_int+0x60>
	while(div>0){
     c50:	16 16       	cp	r1, r22
     c52:	17 06       	cpc	r1, r23
     c54:	ec f4       	brge	.+58     	; 0xc90 <lcd_print_int+0xb0>
		char res = x / div;
		x = x % div;
		div /= 10;
     c56:	0a e0       	ldi	r16, 0x0A	; 10
     c58:	10 e0       	ldi	r17, 0x00	; 0
		LCD_BACKBUFFER[l][c] = '0'+res;
     c5a:	80 e1       	ldi	r24, 0x10	; 16
     c5c:	c8 9f       	mul	r28, r24
     c5e:	e0 01       	movw	r28, r0
     c60:	11 24       	eor	r1, r1
		LCD_BACKBUFFER[l][c] = '0';
		return;
	}
	for(div=10000;div>x;div/=10);
	while(div>0){
		char res = x / div;
     c62:	cf 01       	movw	r24, r30
     c64:	b9 01       	movw	r22, r18
     c66:	0e 94 ff 15 	call	0x2bfe	; 0x2bfe <__divmodhi4>
     c6a:	46 2f       	mov	r20, r22
		x = x % div;
     c6c:	e8 2f       	mov	r30, r24
     c6e:	f9 2f       	mov	r31, r25
		div /= 10;
     c70:	c9 01       	movw	r24, r18
     c72:	b8 01       	movw	r22, r16
     c74:	0e 94 ff 15 	call	0x2bfe	; 0x2bfe <__divmodhi4>
     c78:	9b 01       	movw	r18, r22
		LCD_BACKBUFFER[l][c] = '0'+res;
     c7a:	de 01       	movw	r26, r28
     c7c:	af 0d       	add	r26, r15
     c7e:	b1 1d       	adc	r27, r1
     c80:	af 5c       	subi	r26, 0xCF	; 207
     c82:	b9 4f       	sbci	r27, 0xF9	; 249
     c84:	40 5d       	subi	r20, 0xD0	; 208
     c86:	4c 93       	st	X, r20
		c++;
     c88:	f3 94       	inc	r15
	if(x==0){
		LCD_BACKBUFFER[l][c] = '0';
		return;
	}
	for(div=10000;div>x;div/=10);
	while(div>0){
     c8a:	16 16       	cp	r1, r22
     c8c:	17 06       	cpc	r1, r23
     c8e:	4c f3       	brlt	.-46     	; 0xc62 <lcd_print_int+0x82>
		x = x % div;
		div /= 10;
		LCD_BACKBUFFER[l][c] = '0'+res;
		c++;
	}
}
     c90:	df 91       	pop	r29
     c92:	cf 91       	pop	r28
     c94:	1f 91       	pop	r17
     c96:	0f 91       	pop	r16
     c98:	ff 90       	pop	r15
     c9a:	08 95       	ret

00000c9c <lcd_print_float_31>:
void lcd_print_float_31(char l, char c, float x){
     c9c:	af 92       	push	r10
     c9e:	bf 92       	push	r11
     ca0:	cf 92       	push	r12
     ca2:	df 92       	push	r13
     ca4:	ef 92       	push	r14
     ca6:	ff 92       	push	r15
     ca8:	0f 93       	push	r16
     caa:	1f 93       	push	r17
     cac:	cf 93       	push	r28
     cae:	df 93       	push	r29
     cb0:	00 d0       	rcall	.+0      	; 0xcb2 <lcd_print_float_31+0x16>
     cb2:	00 d0       	rcall	.+0      	; 0xcb4 <lcd_print_float_31+0x18>
     cb4:	00 d0       	rcall	.+0      	; 0xcb6 <lcd_print_float_31+0x1a>
     cb6:	cd b7       	in	r28, 0x3d	; 61
     cb8:	de b7       	in	r29, 0x3e	; 62
     cba:	18 2f       	mov	r17, r24
     cbc:	06 2f       	mov	r16, r22
     cbe:	69 01       	movw	r12, r18
     cc0:	7a 01       	movw	r14, r20
	char buff[6] = "  0.0";
     cc2:	86 e0       	ldi	r24, 0x06	; 6
     cc4:	e4 ed       	ldi	r30, 0xD4	; 212
     cc6:	f1 e0       	ldi	r31, 0x01	; 1
     cc8:	de 01       	movw	r26, r28
     cca:	11 96       	adiw	r26, 0x01	; 1
     ccc:	01 90       	ld	r0, Z+
     cce:	0d 92       	st	X+, r0
     cd0:	8a 95       	dec	r24
     cd2:	e1 f7       	brne	.-8      	; 0xccc <lcd_print_float_31+0x30>
	int div, inteiro = (int)(x*10);
	if(x>=1000 || x<=-100){
     cd4:	20 e0       	ldi	r18, 0x00	; 0
     cd6:	30 e0       	ldi	r19, 0x00	; 0
     cd8:	4a e7       	ldi	r20, 0x7A	; 122
     cda:	54 e4       	ldi	r21, 0x44	; 68
     cdc:	c7 01       	movw	r24, r14
     cde:	b6 01       	movw	r22, r12
     ce0:	0e 94 98 15 	call	0x2b30	; 0x2b30 <__gesf2>
     ce4:	88 23       	and	r24, r24
     ce6:	54 f4       	brge	.+20     	; 0xcfc <lcd_print_float_31+0x60>
     ce8:	20 e0       	ldi	r18, 0x00	; 0
     cea:	30 e0       	ldi	r19, 0x00	; 0
     cec:	48 ec       	ldi	r20, 0xC8	; 200
     cee:	52 ec       	ldi	r21, 0xC2	; 194
     cf0:	c7 01       	movw	r24, r14
     cf2:	b6 01       	movw	r22, r12
     cf4:	0e 94 49 14 	call	0x2892	; 0x2892 <__cmpsf2>
     cf8:	18 16       	cp	r1, r24
     cfa:	34 f0       	brlt	.+12     	; 0xd08 <lcd_print_float_31+0x6c>
		buff[0] = 'E';
     cfc:	85 e4       	ldi	r24, 0x45	; 69
     cfe:	89 83       	std	Y+1, r24	; 0x01
		buff[1] = 'R';
     d00:	82 e5       	ldi	r24, 0x52	; 82
     d02:	8a 83       	std	Y+2, r24	; 0x02
		buff[2] = 'R';
     d04:	8b 83       	std	Y+3, r24	; 0x03
     d06:	3d c0       	rjmp	.+122    	; 0xd82 <lcd_print_float_31+0xe6>
		c++;
	}
}
void lcd_print_float_31(char l, char c, float x){
	char buff[6] = "  0.0";
	int div, inteiro = (int)(x*10);
     d08:	20 e0       	ldi	r18, 0x00	; 0
     d0a:	30 e0       	ldi	r19, 0x00	; 0
     d0c:	40 e2       	ldi	r20, 0x20	; 32
     d0e:	51 e4       	ldi	r21, 0x41	; 65
     d10:	c7 01       	movw	r24, r14
     d12:	b6 01       	movw	r22, r12
     d14:	0e 94 9c 15 	call	0x2b38	; 0x2b38 <__mulsf3>
     d18:	0e 94 b5 14 	call	0x296a	; 0x296a <__fixsfsi>
     d1c:	5b 01       	movw	r10, r22
	if(x>=1000 || x<=-100){
		buff[0] = 'E';
		buff[1] = 'R';
		buff[2] = 'R';
		}else{
		if(x<0){//Como só tem 4 digitos, nao vou fazer lasso
     d1e:	20 e0       	ldi	r18, 0x00	; 0
     d20:	30 e0       	ldi	r19, 0x00	; 0
     d22:	a9 01       	movw	r20, r18
     d24:	c7 01       	movw	r24, r14
     d26:	b6 01       	movw	r22, r12
     d28:	0e 94 49 14 	call	0x2892	; 0x2892 <__cmpsf2>
     d2c:	88 23       	and	r24, r24
     d2e:	3c f4       	brge	.+14     	; 0xd3e <lcd_print_float_31+0xa2>
			buff[0] = '-';
     d30:	8d e2       	ldi	r24, 0x2D	; 45
     d32:	89 83       	std	Y+1, r24	; 0x01
			inteiro = -inteiro;
     d34:	66 27       	eor	r22, r22
     d36:	77 27       	eor	r23, r23
     d38:	6a 19       	sub	r22, r10
     d3a:	7b 09       	sbc	r23, r11
     d3c:	0d c0       	rjmp	.+26     	; 0xd58 <lcd_print_float_31+0xbc>
			}else{
			div = inteiro/1000;
     d3e:	c5 01       	movw	r24, r10
     d40:	68 ee       	ldi	r22, 0xE8	; 232
     d42:	73 e0       	ldi	r23, 0x03	; 3
     d44:	0e 94 ff 15 	call	0x2bfe	; 0x2bfe <__divmodhi4>
     d48:	9b 01       	movw	r18, r22
			inteiro = inteiro%1000;
     d4a:	68 2f       	mov	r22, r24
     d4c:	79 2f       	mov	r23, r25
			if(div>0)buff[0] = '0'+div;
     d4e:	12 16       	cp	r1, r18
     d50:	13 06       	cpc	r1, r19
     d52:	14 f4       	brge	.+4      	; 0xd58 <lcd_print_float_31+0xbc>
     d54:	20 5d       	subi	r18, 0xD0	; 208
     d56:	29 83       	std	Y+1, r18	; 0x01
		}
		div = inteiro/100;
     d58:	cb 01       	movw	r24, r22
     d5a:	64 e6       	ldi	r22, 0x64	; 100
     d5c:	70 e0       	ldi	r23, 0x00	; 0
     d5e:	0e 94 ff 15 	call	0x2bfe	; 0x2bfe <__divmodhi4>
		inteiro = inteiro%100;
		if(div>0 || buff[0]>='0')buff[1] = '0'+div;
     d62:	16 16       	cp	r1, r22
     d64:	17 06       	cpc	r1, r23
     d66:	1c f0       	brlt	.+6      	; 0xd6e <lcd_print_float_31+0xd2>
     d68:	29 81       	ldd	r18, Y+1	; 0x01
     d6a:	20 33       	cpi	r18, 0x30	; 48
     d6c:	10 f0       	brcs	.+4      	; 0xd72 <lcd_print_float_31+0xd6>
     d6e:	60 5d       	subi	r22, 0xD0	; 208
     d70:	6a 83       	std	Y+2, r22	; 0x02
		div = inteiro/10;
     d72:	6a e0       	ldi	r22, 0x0A	; 10
     d74:	70 e0       	ldi	r23, 0x00	; 0
     d76:	0e 94 ff 15 	call	0x2bfe	; 0x2bfe <__divmodhi4>
		inteiro = inteiro%10;
		buff[2] = '0'+div;
     d7a:	60 5d       	subi	r22, 0xD0	; 208
     d7c:	6b 83       	std	Y+3, r22	; 0x03
		buff[4] = '0'+inteiro;
     d7e:	80 5d       	subi	r24, 0xD0	; 208
     d80:	8d 83       	std	Y+5, r24	; 0x05
	}
	lcd_print_str(l, c, buff);
     d82:	ae 01       	movw	r20, r28
     d84:	4f 5f       	subi	r20, 0xFF	; 255
     d86:	5f 4f       	sbci	r21, 0xFF	; 255
     d88:	60 2f       	mov	r22, r16
     d8a:	81 2f       	mov	r24, r17
     d8c:	0e 94 d8 05 	call	0xbb0	; 0xbb0 <lcd_print_str>
}
     d90:	26 96       	adiw	r28, 0x06	; 6
     d92:	0f b6       	in	r0, 0x3f	; 63
     d94:	f8 94       	cli
     d96:	de bf       	out	0x3e, r29	; 62
     d98:	0f be       	out	0x3f, r0	; 63
     d9a:	cd bf       	out	0x3d, r28	; 61
     d9c:	df 91       	pop	r29
     d9e:	cf 91       	pop	r28
     da0:	1f 91       	pop	r17
     da2:	0f 91       	pop	r16
     da4:	ff 90       	pop	r15
     da6:	ef 90       	pop	r14
     da8:	df 90       	pop	r13
     daa:	cf 90       	pop	r12
     dac:	bf 90       	pop	r11
     dae:	af 90       	pop	r10
     db0:	08 95       	ret

00000db2 <lcd_clear>:
void lcd_clear(){
     db2:	a1 e3       	ldi	r26, 0x31	; 49
     db4:	b6 e0       	ldi	r27, 0x06	; 6
     db6:	e1 e4       	ldi	r30, 0x41	; 65
     db8:	f6 e0       	ldi	r31, 0x06	; 6
     dba:	81 e5       	ldi	r24, 0x51	; 81
     dbc:	96 e0       	ldi	r25, 0x06	; 6
	for(int i=0;i<16;i++){
		LCD_BACKBUFFER[0][i] = ' ';
     dbe:	20 e2       	ldi	r18, 0x20	; 32
     dc0:	2d 93       	st	X+, r18
		LCD_BACKBUFFER[1][i] = ' ';
     dc2:	21 93       	st	Z+, r18
		buff[4] = '0'+inteiro;
	}
	lcd_print_str(l, c, buff);
}
void lcd_clear(){
	for(int i=0;i<16;i++){
     dc4:	e8 17       	cp	r30, r24
     dc6:	f9 07       	cpc	r31, r25
     dc8:	d9 f7       	brne	.-10     	; 0xdc0 <lcd_clear+0xe>
		LCD_BACKBUFFER[0][i] = ' ';
		LCD_BACKBUFFER[1][i] = ' ';
	}
	LCD_TAM_MENSAGEM = 0;
     dca:	10 92 5a 06 	sts	0x065A, r1
     dce:	08 95       	ret

00000dd0 <lcd_set_mensagem>:
}
void lcd_set_mensagem(char l, char c, char comp, char* msg){
	LCD_TAM_MENSAGEM = 0;
     dd0:	10 92 5a 06 	sts	0x065A, r1
	for(LCD_TAM_MENSAGEM=0;msg[LCD_TAM_MENSAGEM]!=0;LCD_TAM_MENSAGEM++)LCD_MENSAGEM[LCD_TAM_MENSAGEM]=msg[LCD_TAM_MENSAGEM];
     dd4:	f9 01       	movw	r30, r18
     dd6:	50 81       	ld	r21, Z
     dd8:	55 23       	and	r21, r21
     dda:	81 f0       	breq	.+32     	; 0xdfc <lcd_set_mensagem+0x2c>
     ddc:	90 e0       	ldi	r25, 0x00	; 0
     dde:	e9 2f       	mov	r30, r25
     de0:	f0 e0       	ldi	r31, 0x00	; 0
     de2:	e5 5a       	subi	r30, 0xA5	; 165
     de4:	f9 4f       	sbci	r31, 0xF9	; 249
     de6:	50 83       	st	Z, r21
     de8:	9f 5f       	subi	r25, 0xFF	; 255
     dea:	90 93 5a 06 	sts	0x065A, r25
     dee:	f9 01       	movw	r30, r18
     df0:	e9 0f       	add	r30, r25
     df2:	f1 1d       	adc	r31, r1
     df4:	50 81       	ld	r21, Z
     df6:	51 11       	cpse	r21, r1
     df8:	f2 cf       	rjmp	.-28     	; 0xdde <lcd_set_mensagem+0xe>
     dfa:	01 c0       	rjmp	.+2      	; 0xdfe <lcd_set_mensagem+0x2e>
     dfc:	90 e0       	ldi	r25, 0x00	; 0
	LCD_MENSAGEM[LCD_TAM_MENSAGEM]=' ';
     dfe:	e9 2f       	mov	r30, r25
     e00:	f0 e0       	ldi	r31, 0x00	; 0
     e02:	e5 5a       	subi	r30, 0xA5	; 165
     e04:	f9 4f       	sbci	r31, 0xF9	; 249
     e06:	20 e2       	ldi	r18, 0x20	; 32
     e08:	20 83       	st	Z, r18
	LCD_MENSAGEM[LCD_TAM_MENSAGEM+1]='*';
     e0a:	3a e2       	ldi	r19, 0x2A	; 42
     e0c:	31 83       	std	Z+1, r19	; 0x01
	LCD_MENSAGEM[LCD_TAM_MENSAGEM+2]=' ';
     e0e:	22 83       	std	Z+2, r18	; 0x02
	LCD_TAM_MENSAGEM+=3;
     e10:	29 2f       	mov	r18, r25
     e12:	2d 5f       	subi	r18, 0xFD	; 253
     e14:	20 93 5a 06 	sts	0x065A, r18
	LCD_MSG_POS[0] = l;
     e18:	80 93 28 06 	sts	0x0628, r24
	LCD_MSG_POS[1] = c;
     e1c:	60 93 29 06 	sts	0x0629, r22
	LCD_MSG_POS[2] = comp;
     e20:	40 93 2a 06 	sts	0x062A, r20
	LCD_MSG_ATUAL = LCD_TAM_MENSAGEM -2;
     e24:	9f 5f       	subi	r25, 0xFF	; 255
     e26:	90 93 27 06 	sts	0x0627, r25
	LCD_MSG_COUNTER = 0;
     e2a:	10 92 26 06 	sts	0x0626, r1
     e2e:	08 95       	ret

00000e30 <relogio_init>:
long int MILLIS, SEGUNDOS;
int MILLIS_TOPPED;

void relogio_init(){
	// Timer 2 usado para milisegundos (e segundos);
	TCCR2A = (1<<WGM21)|(1<<WGM20);// modo Fast PWM (interrupcoes e top com OCRA);
     e30:	83 e0       	ldi	r24, 0x03	; 3
     e32:	80 93 b0 00 	sts	0x00B0, r24
	TCCR2B = (1<<WGM22)|(1<<CS22)|(1<<CS20);// 16MHz/128 = 125000
     e36:	8d e0       	ldi	r24, 0x0D	; 13
     e38:	80 93 b1 00 	sts	0x00B1, r24
	OCR2A  = 125-1; // 125000/125 = 1000
     e3c:	8c e7       	ldi	r24, 0x7C	; 124
     e3e:	80 93 b3 00 	sts	0x00B3, r24
	TIMSK2 = (1<<TOIE2);
     e42:	81 e0       	ldi	r24, 0x01	; 1
     e44:	80 93 70 00 	sts	0x0070, r24
	ASSR = 0;
     e48:	10 92 b6 00 	sts	0x00B6, r1
	sei();//habilita interrupcoes
     e4c:	78 94       	sei
	MILLIS = 0;
     e4e:	10 92 2d 06 	sts	0x062D, r1
     e52:	10 92 2e 06 	sts	0x062E, r1
     e56:	10 92 2f 06 	sts	0x062F, r1
     e5a:	10 92 30 06 	sts	0x0630, r1
	SEGUNDOS = 0;
     e5e:	10 92 db 06 	sts	0x06DB, r1
     e62:	10 92 dc 06 	sts	0x06DC, r1
     e66:	10 92 dd 06 	sts	0x06DD, r1
     e6a:	10 92 de 06 	sts	0x06DE, r1
	MILLIS_TOPPED = 0;
     e6e:	10 92 2c 06 	sts	0x062C, r1
     e72:	10 92 2b 06 	sts	0x062B, r1
     e76:	08 95       	ret

00000e78 <ler_int_pequeno>:
#include "interfaces.h"
#include "relogio.h"
#include <avr/eeprom.h>


int ler_int_pequeno(char l, char c, float inicial){
     e78:	2f 92       	push	r2
     e7a:	3f 92       	push	r3
     e7c:	4f 92       	push	r4
     e7e:	5f 92       	push	r5
     e80:	6f 92       	push	r6
     e82:	7f 92       	push	r7
     e84:	8f 92       	push	r8
     e86:	9f 92       	push	r9
     e88:	af 92       	push	r10
     e8a:	bf 92       	push	r11
     e8c:	cf 92       	push	r12
     e8e:	df 92       	push	r13
     e90:	ef 92       	push	r14
     e92:	ff 92       	push	r15
     e94:	0f 93       	push	r16
     e96:	1f 93       	push	r17
     e98:	cf 93       	push	r28
     e9a:	df 93       	push	r29
     e9c:	00 d0       	rcall	.+0      	; 0xe9e <ler_int_pequeno+0x26>
     e9e:	1f 92       	push	r1
     ea0:	cd b7       	in	r28, 0x3d	; 61
     ea2:	de b7       	in	r29, 0x3e	; 62
     ea4:	98 2e       	mov	r9, r24
     ea6:	52 2e       	mov	r5, r18
     ea8:	63 2e       	mov	r6, r19
     eaa:	74 2e       	mov	r7, r20
     eac:	85 2e       	mov	r8, r21
	while(1){
		lcd_print_int(l,c+1,inicial);
     eae:	26 2e       	mov	r2, r22
     eb0:	23 94       	inc	r2
		LCD_BACKBUFFER[l][c] = 0x08;
     eb2:	c6 2e       	mov	r12, r22
     eb4:	d1 2c       	mov	r13, r1
     eb6:	20 e1       	ldi	r18, 0x10	; 16
     eb8:	82 9f       	mul	r24, r18
     eba:	c0 01       	movw	r24, r0
     ebc:	11 24       	eor	r1, r1
     ebe:	9c 01       	movw	r18, r24
     ec0:	2c 0d       	add	r18, r12
     ec2:	3d 1d       	adc	r19, r13
     ec4:	0f 2e       	mov	r0, r31
     ec6:	f1 e3       	ldi	r31, 0x31	; 49
     ec8:	af 2e       	mov	r10, r31
     eca:	f6 e0       	ldi	r31, 0x06	; 6
     ecc:	bf 2e       	mov	r11, r31
     ece:	f0 2d       	mov	r31, r0
     ed0:	a2 0e       	add	r10, r18
     ed2:	b3 1e       	adc	r11, r19
     ed4:	68 94       	set
     ed6:	33 24       	eor	r3, r3
     ed8:	33 f8       	bld	r3, 3
		LCD_BACKBUFFER[l][c+6] = 0x09;
     eda:	0f 2e       	mov	r0, r31
     edc:	f7 e3       	ldi	r31, 0x37	; 55
     ede:	cf 2e       	mov	r12, r31
     ee0:	f6 e0       	ldi	r31, 0x06	; 6
     ee2:	df 2e       	mov	r13, r31
     ee4:	f0 2d       	mov	r31, r0
     ee6:	c2 0e       	add	r12, r18
     ee8:	d3 1e       	adc	r13, r19
     eea:	0f 2e       	mov	r0, r31
     eec:	f9 e0       	ldi	r31, 0x09	; 9
     eee:	4f 2e       	mov	r4, r31
     ef0:	f0 2d       	mov	r31, r0
		LCD_CURSOR[0] = l;
     ef2:	0f 2e       	mov	r0, r31
     ef4:	f5 e5       	ldi	r31, 0x55	; 85
     ef6:	ef 2e       	mov	r14, r31
     ef8:	f6 e0       	ldi	r31, 0x06	; 6
     efa:	ff 2e       	mov	r15, r31
     efc:	f0 2d       	mov	r31, r0
		LCD_CURSOR[1] = c+5;
     efe:	06 e5       	ldi	r16, 0x56	; 86
     f00:	16 e0       	ldi	r17, 0x06	; 6
     f02:	6b 5f       	subi	r22, 0xFB	; 251
     f04:	69 83       	std	Y+1, r22	; 0x01
#include <avr/eeprom.h>


int ler_int_pequeno(char l, char c, float inicial){
	while(1){
		lcd_print_int(l,c+1,inicial);
     f06:	65 2d       	mov	r22, r5
     f08:	76 2d       	mov	r23, r6
     f0a:	87 2d       	mov	r24, r7
     f0c:	98 2d       	mov	r25, r8
     f0e:	0e 94 b5 14 	call	0x296a	; 0x296a <__fixsfsi>
     f12:	7b 83       	std	Y+3, r23	; 0x03
     f14:	6a 83       	std	Y+2, r22	; 0x02
     f16:	ab 01       	movw	r20, r22
     f18:	62 2d       	mov	r22, r2
     f1a:	89 2d       	mov	r24, r9
     f1c:	0e 94 f0 05 	call	0xbe0	; 0xbe0 <lcd_print_int>
		LCD_BACKBUFFER[l][c] = 0x08;
     f20:	f5 01       	movw	r30, r10
     f22:	30 82       	st	Z, r3
		LCD_BACKBUFFER[l][c+6] = 0x09;
     f24:	f6 01       	movw	r30, r12
     f26:	40 82       	st	Z, r4
		LCD_CURSOR[0] = l;
     f28:	f7 01       	movw	r30, r14
     f2a:	90 82       	st	Z, r9
		LCD_CURSOR[1] = c+5;
     f2c:	29 81       	ldd	r18, Y+1	; 0x01
     f2e:	f8 01       	movw	r30, r16
     f30:	20 83       	st	Z, r18
		switch(botoes_ler(30000)){
     f32:	80 e3       	ldi	r24, 0x30	; 48
     f34:	95 e7       	ldi	r25, 0x75	; 117
     f36:	0e 94 ce 00 	call	0x19c	; 0x19c <botoes_ler>
     f3a:	82 30       	cpi	r24, 0x02	; 2
     f3c:	99 f0       	breq	.+38     	; 0xf64 <ler_int_pequeno+0xec>
     f3e:	83 30       	cpi	r24, 0x03	; 3
     f40:	21 f1       	breq	.+72     	; 0xf8a <ler_int_pequeno+0x112>
     f42:	81 30       	cpi	r24, 0x01	; 1
     f44:	f1 f4       	brne	.+60     	; 0xf82 <ler_int_pequeno+0x10a>
			case 1: inicial--; break;
     f46:	20 e0       	ldi	r18, 0x00	; 0
     f48:	30 e0       	ldi	r19, 0x00	; 0
     f4a:	40 e8       	ldi	r20, 0x80	; 128
     f4c:	5f e3       	ldi	r21, 0x3F	; 63
     f4e:	65 2d       	mov	r22, r5
     f50:	76 2d       	mov	r23, r6
     f52:	87 2d       	mov	r24, r7
     f54:	98 2d       	mov	r25, r8
     f56:	0e 94 e4 13 	call	0x27c8	; 0x27c8 <__subsf3>
     f5a:	56 2e       	mov	r5, r22
     f5c:	67 2e       	mov	r6, r23
     f5e:	78 2e       	mov	r7, r24
     f60:	89 2e       	mov	r8, r25
     f62:	d1 cf       	rjmp	.-94     	; 0xf06 <ler_int_pequeno+0x8e>
			case 2: inicial++; break;
     f64:	20 e0       	ldi	r18, 0x00	; 0
     f66:	30 e0       	ldi	r19, 0x00	; 0
     f68:	40 e8       	ldi	r20, 0x80	; 128
     f6a:	5f e3       	ldi	r21, 0x3F	; 63
     f6c:	65 2d       	mov	r22, r5
     f6e:	76 2d       	mov	r23, r6
     f70:	87 2d       	mov	r24, r7
     f72:	98 2d       	mov	r25, r8
     f74:	0e 94 e5 13 	call	0x27ca	; 0x27ca <__addsf3>
     f78:	56 2e       	mov	r5, r22
     f7a:	67 2e       	mov	r6, r23
     f7c:	78 2e       	mov	r7, r24
     f7e:	89 2e       	mov	r8, r25
     f80:	c2 cf       	rjmp	.-124    	; 0xf06 <ler_int_pequeno+0x8e>
			case 3: return inicial;;
			case 4: 
			default: return -1;
     f82:	8f ef       	ldi	r24, 0xFF	; 255
     f84:	9f ef       	ldi	r25, 0xFF	; 255
     f86:	9b 83       	std	Y+3, r25	; 0x03
     f88:	8a 83       	std	Y+2, r24	; 0x02
		}
	}
}
     f8a:	8a 81       	ldd	r24, Y+2	; 0x02
     f8c:	9b 81       	ldd	r25, Y+3	; 0x03
     f8e:	0f 90       	pop	r0
     f90:	0f 90       	pop	r0
     f92:	0f 90       	pop	r0
     f94:	df 91       	pop	r29
     f96:	cf 91       	pop	r28
     f98:	1f 91       	pop	r17
     f9a:	0f 91       	pop	r16
     f9c:	ff 90       	pop	r15
     f9e:	ef 90       	pop	r14
     fa0:	df 90       	pop	r13
     fa2:	cf 90       	pop	r12
     fa4:	bf 90       	pop	r11
     fa6:	af 90       	pop	r10
     fa8:	9f 90       	pop	r9
     faa:	8f 90       	pop	r8
     fac:	7f 90       	pop	r7
     fae:	6f 90       	pop	r6
     fb0:	5f 90       	pop	r5
     fb2:	4f 90       	pop	r4
     fb4:	3f 90       	pop	r3
     fb6:	2f 90       	pop	r2
     fb8:	08 95       	ret

00000fba <ler_float>:
float ler_float(char l, char c, float inicial){
     fba:	2f 92       	push	r2
     fbc:	3f 92       	push	r3
     fbe:	4f 92       	push	r4
     fc0:	5f 92       	push	r5
     fc2:	6f 92       	push	r6
     fc4:	7f 92       	push	r7
     fc6:	8f 92       	push	r8
     fc8:	9f 92       	push	r9
     fca:	af 92       	push	r10
     fcc:	bf 92       	push	r11
     fce:	cf 92       	push	r12
     fd0:	df 92       	push	r13
     fd2:	ef 92       	push	r14
     fd4:	ff 92       	push	r15
     fd6:	0f 93       	push	r16
     fd8:	1f 93       	push	r17
     fda:	cf 93       	push	r28
     fdc:	df 93       	push	r29
     fde:	cd b7       	in	r28, 0x3d	; 61
     fe0:	de b7       	in	r29, 0x3e	; 62
     fe2:	64 97       	sbiw	r28, 0x14	; 20
     fe4:	0f b6       	in	r0, 0x3f	; 63
     fe6:	f8 94       	cli
     fe8:	de bf       	out	0x3e, r29	; 62
     fea:	0f be       	out	0x3f, r0	; 63
     fec:	cd bf       	out	0x3d, r28	; 61
     fee:	88 2e       	mov	r8, r24
     ff0:	36 2e       	mov	r3, r22
     ff2:	42 2e       	mov	r4, r18
     ff4:	53 2e       	mov	r5, r19
     ff6:	64 2e       	mov	r6, r20
     ff8:	75 2e       	mov	r7, r21
	const float incremento[5] = {100.0, 10.0, 1.0, 0, 0.1};
     ffa:	84 e1       	ldi	r24, 0x14	; 20
     ffc:	e0 e1       	ldi	r30, 0x10	; 16
     ffe:	f1 e0       	ldi	r31, 0x01	; 1
    1000:	de 01       	movw	r26, r28
    1002:	11 96       	adiw	r26, 0x01	; 1
    1004:	01 90       	ld	r0, Z+
    1006:	0d 92       	st	X+, r0
    1008:	8a 95       	dec	r24
    100a:	e1 f7       	brne	.-8      	; 0x1004 <ler_float+0x4a>
	char botao, algarismo = 3;
    100c:	0f 2e       	mov	r0, r31
    100e:	f3 e0       	ldi	r31, 0x03	; 3
    1010:	9f 2e       	mov	r9, r31
    1012:	f0 2d       	mov	r31, r0
	while(algarismo>0 && algarismo<6){
		lcd_print_float_31(l,c+1,inicial);
    1014:	26 2e       	mov	r2, r22
    1016:	23 94       	inc	r2
		LCD_BACKBUFFER[l][c] = 0x08;
    1018:	c6 2e       	mov	r12, r22
    101a:	d1 2c       	mov	r13, r1
    101c:	20 e1       	ldi	r18, 0x10	; 16
    101e:	82 9e       	mul	r8, r18
    1020:	c0 01       	movw	r24, r0
    1022:	11 24       	eor	r1, r1
    1024:	9c 01       	movw	r18, r24
    1026:	2c 0d       	add	r18, r12
    1028:	3d 1d       	adc	r19, r13
    102a:	0f 2e       	mov	r0, r31
    102c:	f1 e3       	ldi	r31, 0x31	; 49
    102e:	af 2e       	mov	r10, r31
    1030:	f6 e0       	ldi	r31, 0x06	; 6
    1032:	bf 2e       	mov	r11, r31
    1034:	f0 2d       	mov	r31, r0
    1036:	a2 0e       	add	r10, r18
    1038:	b3 1e       	adc	r11, r19
		LCD_BACKBUFFER[l][c+6] = 0x09;
    103a:	0f 2e       	mov	r0, r31
    103c:	f7 e3       	ldi	r31, 0x37	; 55
    103e:	cf 2e       	mov	r12, r31
    1040:	f6 e0       	ldi	r31, 0x06	; 6
    1042:	df 2e       	mov	r13, r31
    1044:	f0 2d       	mov	r31, r0
    1046:	c2 0e       	add	r12, r18
    1048:	d3 1e       	adc	r13, r19
		LCD_CURSOR[0] = l;
    104a:	0f 2e       	mov	r0, r31
    104c:	f5 e5       	ldi	r31, 0x55	; 85
    104e:	ef 2e       	mov	r14, r31
    1050:	f6 e0       	ldi	r31, 0x06	; 6
    1052:	ff 2e       	mov	r15, r31
    1054:	f0 2d       	mov	r31, r0
		LCD_CURSOR[1] = c+algarismo;
    1056:	06 e5       	ldi	r16, 0x56	; 86
    1058:	16 e0       	ldi	r17, 0x06	; 6
}
float ler_float(char l, char c, float inicial){
	const float incremento[5] = {100.0, 10.0, 1.0, 0, 0.1};
	char botao, algarismo = 3;
	while(algarismo>0 && algarismo<6){
		lcd_print_float_31(l,c+1,inicial);
    105a:	24 2d       	mov	r18, r4
    105c:	35 2d       	mov	r19, r5
    105e:	46 2d       	mov	r20, r6
    1060:	57 2d       	mov	r21, r7
    1062:	62 2d       	mov	r22, r2
    1064:	88 2d       	mov	r24, r8
    1066:	0e 94 4e 06 	call	0xc9c	; 0xc9c <lcd_print_float_31>
		LCD_BACKBUFFER[l][c] = 0x08;
    106a:	28 e0       	ldi	r18, 0x08	; 8
    106c:	f5 01       	movw	r30, r10
    106e:	20 83       	st	Z, r18
		LCD_BACKBUFFER[l][c+6] = 0x09;
    1070:	29 e0       	ldi	r18, 0x09	; 9
    1072:	f6 01       	movw	r30, r12
    1074:	20 83       	st	Z, r18
		LCD_CURSOR[0] = l;
    1076:	f7 01       	movw	r30, r14
    1078:	80 82       	st	Z, r8
		LCD_CURSOR[1] = c+algarismo;
    107a:	89 2d       	mov	r24, r9
    107c:	83 0d       	add	r24, r3
    107e:	f8 01       	movw	r30, r16
    1080:	80 83       	st	Z, r24
		botao = botoes_ler(30000);
    1082:	80 e3       	ldi	r24, 0x30	; 48
    1084:	95 e7       	ldi	r25, 0x75	; 117
    1086:	0e 94 ce 00 	call	0x19c	; 0x19c <botoes_ler>
		switch(botao){
    108a:	82 30       	cpi	r24, 0x02	; 2
    108c:	39 f1       	breq	.+78     	; 0x10dc <ler_float+0x122>
    108e:	20 f4       	brcc	.+8      	; 0x1098 <ler_float+0xde>
    1090:	81 30       	cpi	r24, 0x01	; 1
    1092:	09 f0       	breq	.+2      	; 0x1096 <ler_float+0xdc>
    1094:	49 c0       	rjmp	.+146    	; 0x1128 <ler_float+0x16e>
    1096:	06 c0       	rjmp	.+12     	; 0x10a4 <ler_float+0xea>
    1098:	83 30       	cpi	r24, 0x03	; 3
    109a:	e1 f1       	breq	.+120    	; 0x1114 <ler_float+0x15a>
    109c:	84 30       	cpi	r24, 0x04	; 4
    109e:	09 f0       	breq	.+2      	; 0x10a2 <ler_float+0xe8>
    10a0:	43 c0       	rjmp	.+134    	; 0x1128 <ler_float+0x16e>
    10a2:	3d c0       	rjmp	.+122    	; 0x111e <ler_float+0x164>
			case 1: inicial -= incremento[algarismo-1];break;
    10a4:	e9 2d       	mov	r30, r9
    10a6:	f0 e0       	ldi	r31, 0x00	; 0
    10a8:	31 97       	sbiw	r30, 0x01	; 1
    10aa:	ee 0f       	add	r30, r30
    10ac:	ff 1f       	adc	r31, r31
    10ae:	ee 0f       	add	r30, r30
    10b0:	ff 1f       	adc	r31, r31
    10b2:	81 e0       	ldi	r24, 0x01	; 1
    10b4:	90 e0       	ldi	r25, 0x00	; 0
    10b6:	8c 0f       	add	r24, r28
    10b8:	9d 1f       	adc	r25, r29
    10ba:	e8 0f       	add	r30, r24
    10bc:	f9 1f       	adc	r31, r25
    10be:	20 81       	ld	r18, Z
    10c0:	31 81       	ldd	r19, Z+1	; 0x01
    10c2:	42 81       	ldd	r20, Z+2	; 0x02
    10c4:	53 81       	ldd	r21, Z+3	; 0x03
    10c6:	64 2d       	mov	r22, r4
    10c8:	75 2d       	mov	r23, r5
    10ca:	86 2d       	mov	r24, r6
    10cc:	97 2d       	mov	r25, r7
    10ce:	0e 94 e4 13 	call	0x27c8	; 0x27c8 <__subsf3>
    10d2:	46 2e       	mov	r4, r22
    10d4:	57 2e       	mov	r5, r23
    10d6:	68 2e       	mov	r6, r24
    10d8:	79 2e       	mov	r7, r25
    10da:	27 c0       	rjmp	.+78     	; 0x112a <ler_float+0x170>
			case 2: inicial += incremento[algarismo-1];break;
    10dc:	e9 2d       	mov	r30, r9
    10de:	f0 e0       	ldi	r31, 0x00	; 0
    10e0:	31 97       	sbiw	r30, 0x01	; 1
    10e2:	ee 0f       	add	r30, r30
    10e4:	ff 1f       	adc	r31, r31
    10e6:	ee 0f       	add	r30, r30
    10e8:	ff 1f       	adc	r31, r31
    10ea:	81 e0       	ldi	r24, 0x01	; 1
    10ec:	90 e0       	ldi	r25, 0x00	; 0
    10ee:	8c 0f       	add	r24, r28
    10f0:	9d 1f       	adc	r25, r29
    10f2:	e8 0f       	add	r30, r24
    10f4:	f9 1f       	adc	r31, r25
    10f6:	20 81       	ld	r18, Z
    10f8:	31 81       	ldd	r19, Z+1	; 0x01
    10fa:	42 81       	ldd	r20, Z+2	; 0x02
    10fc:	53 81       	ldd	r21, Z+3	; 0x03
    10fe:	64 2d       	mov	r22, r4
    1100:	75 2d       	mov	r23, r5
    1102:	86 2d       	mov	r24, r6
    1104:	97 2d       	mov	r25, r7
    1106:	0e 94 e5 13 	call	0x27ca	; 0x27ca <__addsf3>
    110a:	46 2e       	mov	r4, r22
    110c:	57 2e       	mov	r5, r23
    110e:	68 2e       	mov	r6, r24
    1110:	79 2e       	mov	r7, r25
    1112:	0b c0       	rjmp	.+22     	; 0x112a <ler_float+0x170>
			case 3: algarismo++; if(algarismo==4)algarismo=5; break;
    1114:	93 94       	inc	r9
    1116:	94 e0       	ldi	r25, 0x04	; 4
    1118:	99 12       	cpse	r9, r25
    111a:	07 c0       	rjmp	.+14     	; 0x112a <ler_float+0x170>
    111c:	18 c0       	rjmp	.+48     	; 0x114e <ler_float+0x194>
			case 4: algarismo--; if(algarismo==4)algarismo=3; break;
    111e:	9a 94       	dec	r9
    1120:	e4 e0       	ldi	r30, 0x04	; 4
    1122:	9e 12       	cpse	r9, r30
    1124:	02 c0       	rjmp	.+4      	; 0x112a <ler_float+0x170>
    1126:	18 c0       	rjmp	.+48     	; 0x1158 <ler_float+0x19e>
			default: algarismo = 0;
    1128:	91 2c       	mov	r9, r1
	}
}
float ler_float(char l, char c, float inicial){
	const float incremento[5] = {100.0, 10.0, 1.0, 0, 0.1};
	char botao, algarismo = 3;
	while(algarismo>0 && algarismo<6){
    112a:	89 2d       	mov	r24, r9
    112c:	81 50       	subi	r24, 0x01	; 1
    112e:	85 30       	cpi	r24, 0x05	; 5
    1130:	08 f4       	brcc	.+2      	; 0x1134 <ler_float+0x17a>
    1132:	93 cf       	rjmp	.-218    	; 0x105a <ler_float+0xa0>
			case 3: algarismo++; if(algarismo==4)algarismo=5; break;
			case 4: algarismo--; if(algarismo==4)algarismo=3; break;
			default: algarismo = 0;
		}
	}
	if(algarismo==0)return -1000.0;
    1134:	91 10       	cpse	r9, r1
    1136:	15 c0       	rjmp	.+42     	; 0x1162 <ler_float+0x1a8>
    1138:	41 2c       	mov	r4, r1
    113a:	51 2c       	mov	r5, r1
    113c:	0f 2e       	mov	r0, r31
    113e:	fa e7       	ldi	r31, 0x7A	; 122
    1140:	6f 2e       	mov	r6, r31
    1142:	f0 2d       	mov	r31, r0
    1144:	0f 2e       	mov	r0, r31
    1146:	f4 ec       	ldi	r31, 0xC4	; 196
    1148:	7f 2e       	mov	r7, r31
    114a:	f0 2d       	mov	r31, r0
    114c:	0a c0       	rjmp	.+20     	; 0x1162 <ler_float+0x1a8>
		LCD_CURSOR[1] = c+algarismo;
		botao = botoes_ler(30000);
		switch(botao){
			case 1: inicial -= incremento[algarismo-1];break;
			case 2: inicial += incremento[algarismo-1];break;
			case 3: algarismo++; if(algarismo==4)algarismo=5; break;
    114e:	0f 2e       	mov	r0, r31
    1150:	f5 e0       	ldi	r31, 0x05	; 5
    1152:	9f 2e       	mov	r9, r31
    1154:	f0 2d       	mov	r31, r0
    1156:	81 cf       	rjmp	.-254    	; 0x105a <ler_float+0xa0>
			case 4: algarismo--; if(algarismo==4)algarismo=3; break;
    1158:	0f 2e       	mov	r0, r31
    115a:	f3 e0       	ldi	r31, 0x03	; 3
    115c:	9f 2e       	mov	r9, r31
    115e:	f0 2d       	mov	r31, r0
    1160:	7c cf       	rjmp	.-264    	; 0x105a <ler_float+0xa0>
			default: algarismo = 0;
		}
	}
	if(algarismo==0)return -1000.0;
	else return inicial;
}
    1162:	64 2d       	mov	r22, r4
    1164:	75 2d       	mov	r23, r5
    1166:	86 2d       	mov	r24, r6
    1168:	97 2d       	mov	r25, r7
    116a:	64 96       	adiw	r28, 0x14	; 20
    116c:	0f b6       	in	r0, 0x3f	; 63
    116e:	f8 94       	cli
    1170:	de bf       	out	0x3e, r29	; 62
    1172:	0f be       	out	0x3f, r0	; 63
    1174:	cd bf       	out	0x3d, r28	; 61
    1176:	df 91       	pop	r29
    1178:	cf 91       	pop	r28
    117a:	1f 91       	pop	r17
    117c:	0f 91       	pop	r16
    117e:	ff 90       	pop	r15
    1180:	ef 90       	pop	r14
    1182:	df 90       	pop	r13
    1184:	cf 90       	pop	r12
    1186:	bf 90       	pop	r11
    1188:	af 90       	pop	r10
    118a:	9f 90       	pop	r9
    118c:	8f 90       	pop	r8
    118e:	7f 90       	pop	r7
    1190:	6f 90       	pop	r6
    1192:	5f 90       	pop	r5
    1194:	4f 90       	pop	r4
    1196:	3f 90       	pop	r3
    1198:	2f 90       	pop	r2
    119a:	08 95       	ret

0000119c <corrigir_sensor>:

char PARADA_EMERGENCIA;
//Leituras de ADC
int ADC_LEITURA[2];

float corrigir_sensor(char index, float raw){
    119c:	2f 92       	push	r2
    119e:	3f 92       	push	r3
    11a0:	4f 92       	push	r4
    11a2:	5f 92       	push	r5
    11a4:	6f 92       	push	r6
    11a6:	7f 92       	push	r7
    11a8:	8f 92       	push	r8
    11aa:	9f 92       	push	r9
    11ac:	af 92       	push	r10
    11ae:	bf 92       	push	r11
    11b0:	cf 92       	push	r12
    11b2:	df 92       	push	r13
    11b4:	ef 92       	push	r14
    11b6:	ff 92       	push	r15
    11b8:	0f 93       	push	r16
    11ba:	1f 93       	push	r17
    11bc:	cf 93       	push	r28
    11be:	df 93       	push	r29
    11c0:	cd b7       	in	r28, 0x3d	; 61
    11c2:	de b7       	in	r29, 0x3e	; 62
    11c4:	28 97       	sbiw	r28, 0x08	; 8
    11c6:	0f b6       	in	r0, 0x3f	; 63
    11c8:	f8 94       	cli
    11ca:	de bf       	out	0x3e, r29	; 62
    11cc:	0f be       	out	0x3f, r0	; 63
    11ce:	cd bf       	out	0x3d, r28	; 61
    11d0:	4a 01       	movw	r8, r20
    11d2:	5b 01       	movw	r10, r22
	int tamanho = eeprom_read_word(CAL_TAMANHO[index]);
    11d4:	28 2f       	mov	r18, r24
    11d6:	30 e0       	ldi	r19, 0x00	; 0
    11d8:	3a 83       	std	Y+2, r19	; 0x02
    11da:	29 83       	std	Y+1, r18	; 0x01
    11dc:	f9 01       	movw	r30, r18
    11de:	ee 0f       	add	r30, r30
    11e0:	ff 1f       	adc	r31, r31
    11e2:	e4 5f       	subi	r30, 0xF4	; 244
    11e4:	fe 4f       	sbci	r31, 0xFE	; 254
    11e6:	80 81       	ld	r24, Z
    11e8:	91 81       	ldd	r25, Z+1	; 0x01
    11ea:	0e 94 6b 16 	call	0x2cd6	; 0x2cd6 <__eerd_word_m328p>
    11ee:	28 2e       	mov	r2, r24
    11f0:	39 2e       	mov	r3, r25
	int offset;
	if(tamanho==0)return 25.0;
    11f2:	21 14       	cp	r2, r1
    11f4:	31 04       	cpc	r3, r1
    11f6:	09 f4       	brne	.+2      	; 0x11fa <corrigir_sensor+0x5e>
    11f8:	8d c0       	rjmp	.+282    	; 0x1314 <corrigir_sensor+0x178>
	if(tamanho==1)return eeprom_read_float(CAL_VAL_Y[index]);
    11fa:	31 e0       	ldi	r19, 0x01	; 1
    11fc:	23 16       	cp	r2, r19
    11fe:	31 04       	cpc	r3, r1
    1200:	91 f0       	breq	.+36     	; 0x1226 <corrigir_sensor+0x8a>
	for(offset=1;eeprom_read_float(CAL_VAL_X[index]+offset)<raw && offset<tamanho-1; offset++);
    1202:	e9 81       	ldd	r30, Y+1	; 0x01
    1204:	fa 81       	ldd	r31, Y+2	; 0x02
    1206:	ee 0f       	add	r30, r30
    1208:	ff 1f       	adc	r31, r31
    120a:	e8 5f       	subi	r30, 0xF8	; 248
    120c:	fe 4f       	sbci	r31, 0xFE	; 254
    120e:	60 80       	ld	r6, Z
    1210:	71 80       	ldd	r7, Z+1	; 0x01
    1212:	84 e0       	ldi	r24, 0x04	; 4
    1214:	90 e0       	ldi	r25, 0x00	; 0
    1216:	9e 83       	std	Y+6, r25	; 0x06
    1218:	8d 83       	std	Y+5, r24	; 0x05
    121a:	01 e0       	ldi	r16, 0x01	; 1
    121c:	10 e0       	ldi	r17, 0x00	; 0
    121e:	91 e0       	ldi	r25, 0x01	; 1
    1220:	29 1a       	sub	r2, r25
    1222:	31 08       	sbc	r3, r1
    1224:	0f c0       	rjmp	.+30     	; 0x1244 <corrigir_sensor+0xa8>

float corrigir_sensor(char index, float raw){
	int tamanho = eeprom_read_word(CAL_TAMANHO[index]);
	int offset;
	if(tamanho==0)return 25.0;
	if(tamanho==1)return eeprom_read_float(CAL_VAL_Y[index]);
    1226:	e9 81       	ldd	r30, Y+1	; 0x01
    1228:	fa 81       	ldd	r31, Y+2	; 0x02
    122a:	ee 0f       	add	r30, r30
    122c:	ff 1f       	adc	r31, r31
    122e:	ec 5f       	subi	r30, 0xFC	; 252
    1230:	fe 4f       	sbci	r31, 0xFE	; 254
    1232:	80 81       	ld	r24, Z
    1234:	91 81       	ldd	r25, Z+1	; 0x01
    1236:	0e 94 65 16 	call	0x2cca	; 0x2cca <__eerd_dword_m328p>
    123a:	70 c0       	rjmp	.+224    	; 0x131c <corrigir_sensor+0x180>
	for(offset=1;eeprom_read_float(CAL_VAL_X[index]+offset)<raw && offset<tamanho-1; offset++);
    123c:	0f 5f       	subi	r16, 0xFF	; 255
    123e:	1f 4f       	sbci	r17, 0xFF	; 255
    1240:	9e 83       	std	Y+6, r25	; 0x06
    1242:	8d 83       	std	Y+5, r24	; 0x05
    1244:	28 01       	movw	r4, r16
    1246:	8d 81       	ldd	r24, Y+5	; 0x05
    1248:	9e 81       	ldd	r25, Y+6	; 0x06
    124a:	86 0d       	add	r24, r6
    124c:	97 1d       	adc	r25, r7
    124e:	0e 94 65 16 	call	0x2cca	; 0x2cca <__eerd_dword_m328p>
    1252:	6b 01       	movw	r12, r22
    1254:	7c 01       	movw	r14, r24
    1256:	a5 01       	movw	r20, r10
    1258:	94 01       	movw	r18, r8
    125a:	0e 94 49 14 	call	0x2892	; 0x2892 <__cmpsf2>
    125e:	88 23       	and	r24, r24
    1260:	34 f4       	brge	.+12     	; 0x126e <corrigir_sensor+0xd2>
    1262:	8d 81       	ldd	r24, Y+5	; 0x05
    1264:	9e 81       	ldd	r25, Y+6	; 0x06
    1266:	04 96       	adiw	r24, 0x04	; 4
    1268:	02 15       	cp	r16, r2
    126a:	13 05       	cpc	r17, r3
    126c:	3c f3       	brlt	.-50     	; 0x123c <corrigir_sensor+0xa0>
	//Agora o valor está entre VAL_VAL_X[offset] e CAL_VAL_X[offset+_1], ou vai ser tratado como se estivesse
	//Da wikipedia, y = y0+(y1-y0)*(x-x0)/(x1-x0)
	float x0 = eeprom_read_float(CAL_VAL_X[index]+offset-1);
    126e:	a1 e0       	ldi	r26, 0x01	; 1
    1270:	4a 1a       	sub	r4, r26
    1272:	51 08       	sbc	r5, r1
    1274:	82 01       	movw	r16, r4
    1276:	00 0f       	add	r16, r16
    1278:	11 1f       	adc	r17, r17
    127a:	00 0f       	add	r16, r16
    127c:	11 1f       	adc	r17, r17
    127e:	c3 01       	movw	r24, r6
    1280:	80 0f       	add	r24, r16
    1282:	91 1f       	adc	r25, r17
    1284:	0e 94 65 16 	call	0x2cca	; 0x2cca <__eerd_dword_m328p>
    1288:	2b 01       	movw	r4, r22
    128a:	3c 01       	movw	r6, r24
	float x1 = eeprom_read_float(CAL_VAL_X[index]+offset);
	float y0 = eeprom_read_float(CAL_VAL_Y[index]+offset-1);
    128c:	e9 81       	ldd	r30, Y+1	; 0x01
    128e:	fa 81       	ldd	r31, Y+2	; 0x02
    1290:	ee 0f       	add	r30, r30
    1292:	ff 1f       	adc	r31, r31
    1294:	ec 5f       	subi	r30, 0xFC	; 252
    1296:	fe 4f       	sbci	r31, 0xFE	; 254
    1298:	20 80       	ld	r2, Z
    129a:	31 80       	ldd	r3, Z+1	; 0x01
    129c:	c1 01       	movw	r24, r2
    129e:	80 0f       	add	r24, r16
    12a0:	91 1f       	adc	r25, r17
    12a2:	0e 94 65 16 	call	0x2cca	; 0x2cca <__eerd_dword_m328p>
    12a6:	69 83       	std	Y+1, r22	; 0x01
    12a8:	7a 83       	std	Y+2, r23	; 0x02
    12aa:	8b 83       	std	Y+3, r24	; 0x03
    12ac:	9c 83       	std	Y+4, r25	; 0x04
	float y1 = eeprom_read_float(CAL_VAL_Y[index]+offset);
    12ae:	8d 81       	ldd	r24, Y+5	; 0x05
    12b0:	9e 81       	ldd	r25, Y+6	; 0x06
    12b2:	82 0d       	add	r24, r2
    12b4:	93 1d       	adc	r25, r3
    12b6:	0e 94 65 16 	call	0x2cca	; 0x2cca <__eerd_dword_m328p>
	return y0+(y1-y0)*(raw-x0)/(x1-x0);
    12ba:	29 81       	ldd	r18, Y+1	; 0x01
    12bc:	3a 81       	ldd	r19, Y+2	; 0x02
    12be:	4b 81       	ldd	r20, Y+3	; 0x03
    12c0:	5c 81       	ldd	r21, Y+4	; 0x04
    12c2:	0e 94 e4 13 	call	0x27c8	; 0x27c8 <__subsf3>
    12c6:	6d 83       	std	Y+5, r22	; 0x05
    12c8:	7e 83       	std	Y+6, r23	; 0x06
    12ca:	8f 83       	std	Y+7, r24	; 0x07
    12cc:	98 87       	std	Y+8, r25	; 0x08
    12ce:	a3 01       	movw	r20, r6
    12d0:	92 01       	movw	r18, r4
    12d2:	c5 01       	movw	r24, r10
    12d4:	b4 01       	movw	r22, r8
    12d6:	0e 94 e4 13 	call	0x27c8	; 0x27c8 <__subsf3>
    12da:	9b 01       	movw	r18, r22
    12dc:	ac 01       	movw	r20, r24
    12de:	6d 81       	ldd	r22, Y+5	; 0x05
    12e0:	7e 81       	ldd	r23, Y+6	; 0x06
    12e2:	8f 81       	ldd	r24, Y+7	; 0x07
    12e4:	98 85       	ldd	r25, Y+8	; 0x08
    12e6:	0e 94 9c 15 	call	0x2b38	; 0x2b38 <__mulsf3>
    12ea:	4b 01       	movw	r8, r22
    12ec:	5c 01       	movw	r10, r24
    12ee:	a3 01       	movw	r20, r6
    12f0:	92 01       	movw	r18, r4
    12f2:	c7 01       	movw	r24, r14
    12f4:	b6 01       	movw	r22, r12
    12f6:	0e 94 e4 13 	call	0x27c8	; 0x27c8 <__subsf3>
    12fa:	9b 01       	movw	r18, r22
    12fc:	ac 01       	movw	r20, r24
    12fe:	c5 01       	movw	r24, r10
    1300:	b4 01       	movw	r22, r8
    1302:	0e 94 4d 14 	call	0x289a	; 0x289a <__divsf3>
    1306:	29 81       	ldd	r18, Y+1	; 0x01
    1308:	3a 81       	ldd	r19, Y+2	; 0x02
    130a:	4b 81       	ldd	r20, Y+3	; 0x03
    130c:	5c 81       	ldd	r21, Y+4	; 0x04
    130e:	0e 94 e5 13 	call	0x27ca	; 0x27ca <__addsf3>
    1312:	04 c0       	rjmp	.+8      	; 0x131c <corrigir_sensor+0x180>
int ADC_LEITURA[2];

float corrigir_sensor(char index, float raw){
	int tamanho = eeprom_read_word(CAL_TAMANHO[index]);
	int offset;
	if(tamanho==0)return 25.0;
    1314:	60 e0       	ldi	r22, 0x00	; 0
    1316:	70 e0       	ldi	r23, 0x00	; 0
    1318:	88 ec       	ldi	r24, 0xC8	; 200
    131a:	91 e4       	ldi	r25, 0x41	; 65
	float x0 = eeprom_read_float(CAL_VAL_X[index]+offset-1);
	float x1 = eeprom_read_float(CAL_VAL_X[index]+offset);
	float y0 = eeprom_read_float(CAL_VAL_Y[index]+offset-1);
	float y1 = eeprom_read_float(CAL_VAL_Y[index]+offset);
	return y0+(y1-y0)*(raw-x0)/(x1-x0);
}
    131c:	28 96       	adiw	r28, 0x08	; 8
    131e:	0f b6       	in	r0, 0x3f	; 63
    1320:	f8 94       	cli
    1322:	de bf       	out	0x3e, r29	; 62
    1324:	0f be       	out	0x3f, r0	; 63
    1326:	cd bf       	out	0x3d, r28	; 61
    1328:	df 91       	pop	r29
    132a:	cf 91       	pop	r28
    132c:	1f 91       	pop	r17
    132e:	0f 91       	pop	r16
    1330:	ff 90       	pop	r15
    1332:	ef 90       	pop	r14
    1334:	df 90       	pop	r13
    1336:	cf 90       	pop	r12
    1338:	bf 90       	pop	r11
    133a:	af 90       	pop	r10
    133c:	9f 90       	pop	r9
    133e:	8f 90       	pop	r8
    1340:	7f 90       	pop	r7
    1342:	6f 90       	pop	r6
    1344:	5f 90       	pop	r5
    1346:	4f 90       	pop	r4
    1348:	3f 90       	pop	r3
    134a:	2f 90       	pop	r2
    134c:	08 95       	ret

0000134e <inicializar_calibracao>:
void init_menus(){
	PARADA_EMERGENCIA = 0;
	ADC_LEITURA[0] = adc_read(0);
	ADC_LEITURA[1] = adc_read(1);
}
void inicializar_calibracao(){
    134e:	cf 93       	push	r28
    1350:	df 93       	push	r29
	eeprom_write_word(CAL_TAMANHO[0], 5);
    1352:	65 e0       	ldi	r22, 0x05	; 5
    1354:	70 e0       	ldi	r23, 0x00	; 0
    1356:	80 91 0c 01 	lds	r24, 0x010C
    135a:	90 91 0d 01 	lds	r25, 0x010D
    135e:	0e 94 91 16 	call	0x2d22	; 0x2d22 <__eewr_word_m328p>
	eeprom_write_word(CAL_TAMANHO[1], 5);
    1362:	65 e0       	ldi	r22, 0x05	; 5
    1364:	70 e0       	ldi	r23, 0x00	; 0
    1366:	80 91 0e 01 	lds	r24, 0x010E
    136a:	90 91 0f 01 	lds	r25, 0x010F
    136e:	0e 94 91 16 	call	0x2d22	; 0x2d22 <__eewr_word_m328p>
	eeprom_write_float(CAL_VAL_X[0]+0, 1);
    1372:	c8 e0       	ldi	r28, 0x08	; 8
    1374:	d1 e0       	ldi	r29, 0x01	; 1
    1376:	40 e0       	ldi	r20, 0x00	; 0
    1378:	50 e0       	ldi	r21, 0x00	; 0
    137a:	60 e8       	ldi	r22, 0x80	; 128
    137c:	7f e3       	ldi	r23, 0x3F	; 63
    137e:	88 81       	ld	r24, Y
    1380:	99 81       	ldd	r25, Y+1	; 0x01
    1382:	0e 94 89 16 	call	0x2d12	; 0x2d12 <__eewr_dword_m328p>
	eeprom_write_float(CAL_VAL_X[0]+1, 2);
    1386:	88 81       	ld	r24, Y
    1388:	99 81       	ldd	r25, Y+1	; 0x01
    138a:	40 e0       	ldi	r20, 0x00	; 0
    138c:	50 e0       	ldi	r21, 0x00	; 0
    138e:	60 e0       	ldi	r22, 0x00	; 0
    1390:	70 e4       	ldi	r23, 0x40	; 64
    1392:	04 96       	adiw	r24, 0x04	; 4
    1394:	0e 94 89 16 	call	0x2d12	; 0x2d12 <__eewr_dword_m328p>
	eeprom_write_float(CAL_VAL_X[0]+2, 3);
    1398:	88 81       	ld	r24, Y
    139a:	99 81       	ldd	r25, Y+1	; 0x01
    139c:	40 e0       	ldi	r20, 0x00	; 0
    139e:	50 e0       	ldi	r21, 0x00	; 0
    13a0:	60 e4       	ldi	r22, 0x40	; 64
    13a2:	70 e4       	ldi	r23, 0x40	; 64
    13a4:	08 96       	adiw	r24, 0x08	; 8
    13a6:	0e 94 89 16 	call	0x2d12	; 0x2d12 <__eewr_dword_m328p>
	eeprom_write_float(CAL_VAL_X[0]+3, 4);
    13aa:	88 81       	ld	r24, Y
    13ac:	99 81       	ldd	r25, Y+1	; 0x01
    13ae:	40 e0       	ldi	r20, 0x00	; 0
    13b0:	50 e0       	ldi	r21, 0x00	; 0
    13b2:	60 e8       	ldi	r22, 0x80	; 128
    13b4:	70 e4       	ldi	r23, 0x40	; 64
    13b6:	0c 96       	adiw	r24, 0x0c	; 12
    13b8:	0e 94 89 16 	call	0x2d12	; 0x2d12 <__eewr_dword_m328p>
	eeprom_write_float(CAL_VAL_X[0]+4, 5);
    13bc:	88 81       	ld	r24, Y
    13be:	99 81       	ldd	r25, Y+1	; 0x01
    13c0:	40 e0       	ldi	r20, 0x00	; 0
    13c2:	50 e0       	ldi	r21, 0x00	; 0
    13c4:	60 ea       	ldi	r22, 0xA0	; 160
    13c6:	70 e4       	ldi	r23, 0x40	; 64
    13c8:	40 96       	adiw	r24, 0x10	; 16
    13ca:	0e 94 89 16 	call	0x2d12	; 0x2d12 <__eewr_dword_m328p>
	eeprom_write_float(CAL_VAL_Y[0]+0, 0);
    13ce:	c4 e0       	ldi	r28, 0x04	; 4
    13d0:	d1 e0       	ldi	r29, 0x01	; 1
    13d2:	40 e0       	ldi	r20, 0x00	; 0
    13d4:	50 e0       	ldi	r21, 0x00	; 0
    13d6:	ba 01       	movw	r22, r20
    13d8:	88 81       	ld	r24, Y
    13da:	99 81       	ldd	r25, Y+1	; 0x01
    13dc:	0e 94 89 16 	call	0x2d12	; 0x2d12 <__eewr_dword_m328p>
	eeprom_write_float(CAL_VAL_Y[0]+1, 69.3);
    13e0:	88 81       	ld	r24, Y
    13e2:	99 81       	ldd	r25, Y+1	; 0x01
    13e4:	4a e9       	ldi	r20, 0x9A	; 154
    13e6:	59 e9       	ldi	r21, 0x99	; 153
    13e8:	6a e8       	ldi	r22, 0x8A	; 138
    13ea:	72 e4       	ldi	r23, 0x42	; 66
    13ec:	04 96       	adiw	r24, 0x04	; 4
    13ee:	0e 94 89 16 	call	0x2d12	; 0x2d12 <__eewr_dword_m328p>
	eeprom_write_float(CAL_VAL_Y[0]+2, 109.8);
    13f2:	88 81       	ld	r24, Y
    13f4:	99 81       	ldd	r25, Y+1	; 0x01
    13f6:	4a e9       	ldi	r20, 0x9A	; 154
    13f8:	59 e9       	ldi	r21, 0x99	; 153
    13fa:	6b ed       	ldi	r22, 0xDB	; 219
    13fc:	72 e4       	ldi	r23, 0x42	; 66
    13fe:	08 96       	adiw	r24, 0x08	; 8
    1400:	0e 94 89 16 	call	0x2d12	; 0x2d12 <__eewr_dword_m328p>
	eeprom_write_float(CAL_VAL_Y[0]+3, 138.6);
    1404:	88 81       	ld	r24, Y
    1406:	99 81       	ldd	r25, Y+1	; 0x01
    1408:	4a e9       	ldi	r20, 0x9A	; 154
    140a:	59 e9       	ldi	r21, 0x99	; 153
    140c:	6a e0       	ldi	r22, 0x0A	; 10
    140e:	73 e4       	ldi	r23, 0x43	; 67
    1410:	0c 96       	adiw	r24, 0x0c	; 12
    1412:	0e 94 89 16 	call	0x2d12	; 0x2d12 <__eewr_dword_m328p>
	eeprom_write_float(CAL_VAL_Y[0]+4, 160.9);
    1416:	88 81       	ld	r24, Y
    1418:	99 81       	ldd	r25, Y+1	; 0x01
    141a:	46 e6       	ldi	r20, 0x66	; 102
    141c:	56 ee       	ldi	r21, 0xE6	; 230
    141e:	60 e2       	ldi	r22, 0x20	; 32
    1420:	73 e4       	ldi	r23, 0x43	; 67
    1422:	40 96       	adiw	r24, 0x10	; 16
    1424:	0e 94 89 16 	call	0x2d12	; 0x2d12 <__eewr_dword_m328p>
	eeprom_write_float(CAL_VAL_X[1]+0, 1);
    1428:	ca e0       	ldi	r28, 0x0A	; 10
    142a:	d1 e0       	ldi	r29, 0x01	; 1
    142c:	40 e0       	ldi	r20, 0x00	; 0
    142e:	50 e0       	ldi	r21, 0x00	; 0
    1430:	60 e8       	ldi	r22, 0x80	; 128
    1432:	7f e3       	ldi	r23, 0x3F	; 63
    1434:	88 81       	ld	r24, Y
    1436:	99 81       	ldd	r25, Y+1	; 0x01
    1438:	0e 94 89 16 	call	0x2d12	; 0x2d12 <__eewr_dword_m328p>
	eeprom_write_float(CAL_VAL_X[1]+1, 2);
    143c:	88 81       	ld	r24, Y
    143e:	99 81       	ldd	r25, Y+1	; 0x01
    1440:	40 e0       	ldi	r20, 0x00	; 0
    1442:	50 e0       	ldi	r21, 0x00	; 0
    1444:	60 e0       	ldi	r22, 0x00	; 0
    1446:	70 e4       	ldi	r23, 0x40	; 64
    1448:	04 96       	adiw	r24, 0x04	; 4
    144a:	0e 94 89 16 	call	0x2d12	; 0x2d12 <__eewr_dword_m328p>
	eeprom_write_float(CAL_VAL_X[1]+2, 3);
    144e:	88 81       	ld	r24, Y
    1450:	99 81       	ldd	r25, Y+1	; 0x01
    1452:	40 e0       	ldi	r20, 0x00	; 0
    1454:	50 e0       	ldi	r21, 0x00	; 0
    1456:	60 e4       	ldi	r22, 0x40	; 64
    1458:	70 e4       	ldi	r23, 0x40	; 64
    145a:	08 96       	adiw	r24, 0x08	; 8
    145c:	0e 94 89 16 	call	0x2d12	; 0x2d12 <__eewr_dword_m328p>
	eeprom_write_float(CAL_VAL_X[1]+3, 4);
    1460:	88 81       	ld	r24, Y
    1462:	99 81       	ldd	r25, Y+1	; 0x01
    1464:	40 e0       	ldi	r20, 0x00	; 0
    1466:	50 e0       	ldi	r21, 0x00	; 0
    1468:	60 e8       	ldi	r22, 0x80	; 128
    146a:	70 e4       	ldi	r23, 0x40	; 64
    146c:	0c 96       	adiw	r24, 0x0c	; 12
    146e:	0e 94 89 16 	call	0x2d12	; 0x2d12 <__eewr_dword_m328p>
	eeprom_write_float(CAL_VAL_X[1]+4, 5);
    1472:	88 81       	ld	r24, Y
    1474:	99 81       	ldd	r25, Y+1	; 0x01
    1476:	40 e0       	ldi	r20, 0x00	; 0
    1478:	50 e0       	ldi	r21, 0x00	; 0
    147a:	60 ea       	ldi	r22, 0xA0	; 160
    147c:	70 e4       	ldi	r23, 0x40	; 64
    147e:	40 96       	adiw	r24, 0x10	; 16
    1480:	0e 94 89 16 	call	0x2d12	; 0x2d12 <__eewr_dword_m328p>
	eeprom_write_float(CAL_VAL_Y[1]+0, 0);
    1484:	c6 e0       	ldi	r28, 0x06	; 6
    1486:	d1 e0       	ldi	r29, 0x01	; 1
    1488:	40 e0       	ldi	r20, 0x00	; 0
    148a:	50 e0       	ldi	r21, 0x00	; 0
    148c:	ba 01       	movw	r22, r20
    148e:	88 81       	ld	r24, Y
    1490:	99 81       	ldd	r25, Y+1	; 0x01
    1492:	0e 94 89 16 	call	0x2d12	; 0x2d12 <__eewr_dword_m328p>
	eeprom_write_float(CAL_VAL_Y[1]+1, 69.3);
    1496:	88 81       	ld	r24, Y
    1498:	99 81       	ldd	r25, Y+1	; 0x01
    149a:	4a e9       	ldi	r20, 0x9A	; 154
    149c:	59 e9       	ldi	r21, 0x99	; 153
    149e:	6a e8       	ldi	r22, 0x8A	; 138
    14a0:	72 e4       	ldi	r23, 0x42	; 66
    14a2:	04 96       	adiw	r24, 0x04	; 4
    14a4:	0e 94 89 16 	call	0x2d12	; 0x2d12 <__eewr_dword_m328p>
	eeprom_write_float(CAL_VAL_Y[1]+2, 109.8);
    14a8:	88 81       	ld	r24, Y
    14aa:	99 81       	ldd	r25, Y+1	; 0x01
    14ac:	4a e9       	ldi	r20, 0x9A	; 154
    14ae:	59 e9       	ldi	r21, 0x99	; 153
    14b0:	6b ed       	ldi	r22, 0xDB	; 219
    14b2:	72 e4       	ldi	r23, 0x42	; 66
    14b4:	08 96       	adiw	r24, 0x08	; 8
    14b6:	0e 94 89 16 	call	0x2d12	; 0x2d12 <__eewr_dword_m328p>
	eeprom_write_float(CAL_VAL_Y[1]+3, 138.6);
    14ba:	88 81       	ld	r24, Y
    14bc:	99 81       	ldd	r25, Y+1	; 0x01
    14be:	4a e9       	ldi	r20, 0x9A	; 154
    14c0:	59 e9       	ldi	r21, 0x99	; 153
    14c2:	6a e0       	ldi	r22, 0x0A	; 10
    14c4:	73 e4       	ldi	r23, 0x43	; 67
    14c6:	0c 96       	adiw	r24, 0x0c	; 12
    14c8:	0e 94 89 16 	call	0x2d12	; 0x2d12 <__eewr_dword_m328p>
	eeprom_write_float(CAL_VAL_Y[1]+4, 160.9);
    14cc:	88 81       	ld	r24, Y
    14ce:	99 81       	ldd	r25, Y+1	; 0x01
    14d0:	46 e6       	ldi	r20, 0x66	; 102
    14d2:	56 ee       	ldi	r21, 0xE6	; 230
    14d4:	60 e2       	ldi	r22, 0x20	; 32
    14d6:	73 e4       	ldi	r23, 0x43	; 67
    14d8:	40 96       	adiw	r24, 0x10	; 16
    14da:	0e 94 89 16 	call	0x2d12	; 0x2d12 <__eewr_dword_m328p>
	eeprom_write_float(TEMP_MINMAX+0, 40.0);
    14de:	40 e0       	ldi	r20, 0x00	; 0
    14e0:	50 e0       	ldi	r21, 0x00	; 0
    14e2:	60 e2       	ldi	r22, 0x20	; 32
    14e4:	72 e4       	ldi	r23, 0x42	; 66
    14e6:	80 91 02 01 	lds	r24, 0x0102
    14ea:	90 91 03 01 	lds	r25, 0x0103
    14ee:	0e 94 89 16 	call	0x2d12	; 0x2d12 <__eewr_dword_m328p>
	eeprom_write_float(TEMP_MINMAX+1, 80.0);
    14f2:	80 91 02 01 	lds	r24, 0x0102
    14f6:	90 91 03 01 	lds	r25, 0x0103
    14fa:	40 e0       	ldi	r20, 0x00	; 0
    14fc:	50 e0       	ldi	r21, 0x00	; 0
    14fe:	60 ea       	ldi	r22, 0xA0	; 160
    1500:	72 e4       	ldi	r23, 0x42	; 66
    1502:	04 96       	adiw	r24, 0x04	; 4
    1504:	0e 94 89 16 	call	0x2d12	; 0x2d12 <__eewr_dword_m328p>
	eeprom_write_float(TEMP_MINMAX+2, 40.0);
    1508:	80 91 02 01 	lds	r24, 0x0102
    150c:	90 91 03 01 	lds	r25, 0x0103
    1510:	40 e0       	ldi	r20, 0x00	; 0
    1512:	50 e0       	ldi	r21, 0x00	; 0
    1514:	60 e2       	ldi	r22, 0x20	; 32
    1516:	72 e4       	ldi	r23, 0x42	; 66
    1518:	08 96       	adiw	r24, 0x08	; 8
    151a:	0e 94 89 16 	call	0x2d12	; 0x2d12 <__eewr_dword_m328p>
	eeprom_write_float(TEMP_MINMAX+3, 80.0);
    151e:	80 91 02 01 	lds	r24, 0x0102
    1522:	90 91 03 01 	lds	r25, 0x0103
    1526:	40 e0       	ldi	r20, 0x00	; 0
    1528:	50 e0       	ldi	r21, 0x00	; 0
    152a:	60 ea       	ldi	r22, 0xA0	; 160
    152c:	72 e4       	ldi	r23, 0x42	; 66
    152e:	0c 96       	adiw	r24, 0x0c	; 12
    1530:	0e 94 89 16 	call	0x2d12	; 0x2d12 <__eewr_dword_m328p>
	eeprom_write_word(ULTIMO_TEMPO_CORROSAO, 15);
    1534:	6f e0       	ldi	r22, 0x0F	; 15
    1536:	70 e0       	ldi	r23, 0x00	; 0
    1538:	80 91 00 01 	lds	r24, 0x0100
    153c:	90 91 01 01 	lds	r25, 0x0101
    1540:	0e 94 91 16 	call	0x2d22	; 0x2d22 <__eewr_word_m328p>
}
    1544:	df 91       	pop	r29
    1546:	cf 91       	pop	r28
    1548:	08 95       	ret

0000154a <menu_principal>:
int menu_principal(){
    154a:	cf 92       	push	r12
    154c:	df 92       	push	r13
    154e:	ef 92       	push	r14
    1550:	ff 92       	push	r15
    1552:	0f 93       	push	r16
    1554:	1f 93       	push	r17
    1556:	cf 93       	push	r28
    1558:	df 93       	push	r29
    155a:	cd b7       	in	r28, 0x3d	; 61
    155c:	de b7       	in	r29, 0x3e	; 62
    155e:	c0 57       	subi	r28, 0x70	; 112
    1560:	d1 09       	sbc	r29, r1
    1562:	0f b6       	in	r0, 0x3f	; 63
    1564:	f8 94       	cli
    1566:	de bf       	out	0x3e, r29	; 62
    1568:	0f be       	out	0x3f, r0	; 63
    156a:	cd bf       	out	0x3d, r28	; 61
	int atual = 0;
	const char menus[7][16] = {
    156c:	80 e7       	ldi	r24, 0x70	; 112
    156e:	e4 e2       	ldi	r30, 0x24	; 36
    1570:	f1 e0       	ldi	r31, 0x01	; 1
    1572:	de 01       	movw	r26, r28
    1574:	11 96       	adiw	r26, 0x01	; 1
    1576:	01 90       	ld	r0, Z+
    1578:	0d 92       	st	X+, r0
    157a:	8a 95       	dec	r24
    157c:	e1 f7       	brne	.-8      	; 0x1576 <menu_principal+0x2c>
		"Info termometro",
		"Temp. Maximas  ",
		"Calib. term. 1 ",
		"Calib. term. 2 "
	};
	lcd_clear();
    157e:	0e 94 d9 06 	call	0xdb2	; 0xdb2 <lcd_clear>
	LCD_CURSOR[0] = -1;
    1582:	8f ef       	ldi	r24, 0xFF	; 255
    1584:	80 93 55 06 	sts	0x0655, r24
	lcd_set_mensagem(0,0,15,"Selecione o que deseja fazer com cima/baixo e OK");
    1588:	2a ed       	ldi	r18, 0xDA	; 218
    158a:	31 e0       	ldi	r19, 0x01	; 1
    158c:	4f e0       	ldi	r20, 0x0F	; 15
    158e:	60 e0       	ldi	r22, 0x00	; 0
    1590:	80 e0       	ldi	r24, 0x00	; 0
    1592:	0e 94 e8 06 	call	0xdd0	; 0xdd0 <lcd_set_mensagem>
	eeprom_write_float(TEMP_MINMAX+2, 40.0);
	eeprom_write_float(TEMP_MINMAX+3, 80.0);
	eeprom_write_word(ULTIMO_TEMPO_CORROSAO, 15);
}
int menu_principal(){
	int atual = 0;
    1596:	00 e0       	ldi	r16, 0x00	; 0
    1598:	10 e0       	ldi	r17, 0x00	; 0
	LCD_CURSOR[0] = -1;
	lcd_set_mensagem(0,0,15,"Selecione o que deseja fazer com cima/baixo e OK");
	while(1){
		lcd_print_str(1,0,menus[atual]);
		switch(botoes_ler(30000)){
			case 1: atual++; if(atual>7)atual=0; break;
    159a:	e1 2c       	mov	r14, r1
    159c:	f1 2c       	mov	r15, r1
			case 2: atual--; if(atual<0)atual=7-1; break;
    159e:	0f 2e       	mov	r0, r31
    15a0:	f6 e0       	ldi	r31, 0x06	; 6
    15a2:	cf 2e       	mov	r12, r31
    15a4:	d1 2c       	mov	r13, r1
    15a6:	f0 2d       	mov	r31, r0
    15a8:	03 c0       	rjmp	.+6      	; 0x15b0 <menu_principal+0x66>
	LCD_CURSOR[0] = -1;
	lcd_set_mensagem(0,0,15,"Selecione o que deseja fazer com cima/baixo e OK");
	while(1){
		lcd_print_str(1,0,menus[atual]);
		switch(botoes_ler(30000)){
			case 1: atual++; if(atual>7)atual=0; break;
    15aa:	87 01       	movw	r16, r14
    15ac:	01 c0       	rjmp	.+2      	; 0x15b0 <menu_principal+0x66>
			case 2: atual--; if(atual<0)atual=7-1; break;
    15ae:	86 01       	movw	r16, r12
	};
	lcd_clear();
	LCD_CURSOR[0] = -1;
	lcd_set_mensagem(0,0,15,"Selecione o que deseja fazer com cima/baixo e OK");
	while(1){
		lcd_print_str(1,0,menus[atual]);
    15b0:	a8 01       	movw	r20, r16
    15b2:	42 95       	swap	r20
    15b4:	52 95       	swap	r21
    15b6:	50 7f       	andi	r21, 0xF0	; 240
    15b8:	54 27       	eor	r21, r20
    15ba:	40 7f       	andi	r20, 0xF0	; 240
    15bc:	54 27       	eor	r21, r20
    15be:	81 e0       	ldi	r24, 0x01	; 1
    15c0:	90 e0       	ldi	r25, 0x00	; 0
    15c2:	8c 0f       	add	r24, r28
    15c4:	9d 1f       	adc	r25, r29
    15c6:	48 0f       	add	r20, r24
    15c8:	59 1f       	adc	r21, r25
    15ca:	60 e0       	ldi	r22, 0x00	; 0
    15cc:	81 e0       	ldi	r24, 0x01	; 1
    15ce:	0e 94 d8 05 	call	0xbb0	; 0xbb0 <lcd_print_str>
		switch(botoes_ler(30000)){
    15d2:	80 e3       	ldi	r24, 0x30	; 48
    15d4:	95 e7       	ldi	r25, 0x75	; 117
    15d6:	0e 94 ce 00 	call	0x19c	; 0x19c <botoes_ler>
    15da:	82 30       	cpi	r24, 0x02	; 2
    15dc:	51 f0       	breq	.+20     	; 0x15f2 <menu_principal+0xa8>
    15de:	83 30       	cpi	r24, 0x03	; 3
    15e0:	61 f0       	breq	.+24     	; 0x15fa <menu_principal+0xb0>
    15e2:	81 30       	cpi	r24, 0x01	; 1
    15e4:	29 f7       	brne	.-54     	; 0x15b0 <menu_principal+0x66>
			case 1: atual++; if(atual>7)atual=0; break;
    15e6:	0f 5f       	subi	r16, 0xFF	; 255
    15e8:	1f 4f       	sbci	r17, 0xFF	; 255
    15ea:	08 30       	cpi	r16, 0x08	; 8
    15ec:	11 05       	cpc	r17, r1
    15ee:	ec f6       	brge	.-70     	; 0x15aa <menu_principal+0x60>
    15f0:	df cf       	rjmp	.-66     	; 0x15b0 <menu_principal+0x66>
			case 2: atual--; if(atual<0)atual=7-1; break;
    15f2:	01 50       	subi	r16, 0x01	; 1
    15f4:	11 09       	sbc	r17, r1
    15f6:	e2 f6       	brpl	.-72     	; 0x15b0 <menu_principal+0x66>
    15f8:	da cf       	rjmp	.-76     	; 0x15ae <menu_principal+0x64>
			case 3: return atual;
		}
	}		
}
    15fa:	80 2f       	mov	r24, r16
    15fc:	91 2f       	mov	r25, r17
    15fe:	c0 59       	subi	r28, 0x90	; 144
    1600:	df 4f       	sbci	r29, 0xFF	; 255
    1602:	0f b6       	in	r0, 0x3f	; 63
    1604:	f8 94       	cli
    1606:	de bf       	out	0x3e, r29	; 62
    1608:	0f be       	out	0x3f, r0	; 63
    160a:	cd bf       	out	0x3d, r28	; 61
    160c:	df 91       	pop	r29
    160e:	cf 91       	pop	r28
    1610:	1f 91       	pop	r17
    1612:	0f 91       	pop	r16
    1614:	ff 90       	pop	r15
    1616:	ef 90       	pop	r14
    1618:	df 90       	pop	r13
    161a:	cf 90       	pop	r12
    161c:	08 95       	ret

0000161e <menu_corroer_placa>:
void menu_corroer_placa(){
    161e:	2f 92       	push	r2
    1620:	3f 92       	push	r3
    1622:	4f 92       	push	r4
    1624:	5f 92       	push	r5
    1626:	6f 92       	push	r6
    1628:	7f 92       	push	r7
    162a:	8f 92       	push	r8
    162c:	9f 92       	push	r9
    162e:	af 92       	push	r10
    1630:	bf 92       	push	r11
    1632:	cf 92       	push	r12
    1634:	df 92       	push	r13
    1636:	ef 92       	push	r14
    1638:	ff 92       	push	r15
    163a:	0f 93       	push	r16
    163c:	1f 93       	push	r17
    163e:	cf 93       	push	r28
    1640:	df 93       	push	r29
	int tempo;
	lcd_clear();
    1642:	0e 94 d9 06 	call	0xdb2	; 0xdb2 <lcd_clear>
	LCD_CURSOR[0] = -1;
    1646:	8f ef       	ldi	r24, 0xFF	; 255
    1648:	80 93 55 06 	sts	0x0655, r24
	PARADA_EMERGENCIA = 0;
    164c:	10 92 57 06 	sts	0x0657, r1
	lcd_print_str(0,0,"  LEVANTANDO   ");
    1650:	4b e0       	ldi	r20, 0x0B	; 11
    1652:	52 e0       	ldi	r21, 0x02	; 2
    1654:	60 e0       	ldi	r22, 0x00	; 0
    1656:	80 e0       	ldi	r24, 0x00	; 0
    1658:	0e 94 d8 05 	call	0xbb0	; 0xbb0 <lcd_print_str>
	lcd_print_str(1,0,"               ");
    165c:	4b e1       	ldi	r20, 0x1B	; 27
    165e:	52 e0       	ldi	r21, 0x02	; 2
    1660:	60 e0       	ldi	r22, 0x00	; 0
    1662:	81 e0       	ldi	r24, 0x01	; 1
    1664:	0e 94 d8 05 	call	0xbb0	; 0xbb0 <lcd_print_str>
	motor_subir();
    1668:	0e 94 7e 00 	call	0xfc	; 0xfc <motor_subir>
	while(!fdc_1()){
    166c:	23 c0       	rjmp	.+70     	; 0x16b4 <menu_corroer_placa+0x96>
    166e:	2f ef       	ldi	r18, 0xFF	; 255
    1670:	31 ee       	ldi	r19, 0xE1	; 225
    1672:	44 e0       	ldi	r20, 0x04	; 4
    1674:	21 50       	subi	r18, 0x01	; 1
    1676:	30 40       	sbci	r19, 0x00	; 0
    1678:	40 40       	sbci	r20, 0x00	; 0
    167a:	e1 f7       	brne	.-8      	; 0x1674 <menu_corroer_placa+0x56>
    167c:	00 c0       	rjmp	.+0      	; 0x167e <menu_corroer_placa+0x60>
    167e:	00 00       	nop
		_delay_ms(100);
		if(PARADA_EMERGENCIA){
    1680:	80 91 57 06 	lds	r24, 0x0657
    1684:	88 23       	and	r24, r24
    1686:	b1 f0       	breq	.+44     	; 0x16b4 <menu_corroer_placa+0x96>
			//Motor e aquecedor já parados durante a interrupção
			lcd_print_str(0,0,"    PARADA     ");
    1688:	4b e2       	ldi	r20, 0x2B	; 43
    168a:	52 e0       	ldi	r21, 0x02	; 2
    168c:	60 e0       	ldi	r22, 0x00	; 0
    168e:	80 e0       	ldi	r24, 0x00	; 0
    1690:	0e 94 d8 05 	call	0xbb0	; 0xbb0 <lcd_print_str>
			lcd_print_str(1,0,"  EMERGENCIA   ");
    1694:	4b e3       	ldi	r20, 0x3B	; 59
    1696:	52 e0       	ldi	r21, 0x02	; 2
    1698:	60 e0       	ldi	r22, 0x00	; 0
    169a:	81 e0       	ldi	r24, 0x01	; 1
    169c:	0e 94 d8 05 	call	0xbb0	; 0xbb0 <lcd_print_str>
    16a0:	5f ef       	ldi	r21, 0xFF	; 255
    16a2:	83 ed       	ldi	r24, 0xD3	; 211
    16a4:	90 e3       	ldi	r25, 0x30	; 48
    16a6:	51 50       	subi	r21, 0x01	; 1
    16a8:	80 40       	sbci	r24, 0x00	; 0
    16aa:	90 40       	sbci	r25, 0x00	; 0
    16ac:	e1 f7       	brne	.-8      	; 0x16a6 <menu_corroer_placa+0x88>
    16ae:	00 c0       	rjmp	.+0      	; 0x16b0 <menu_corroer_placa+0x92>
    16b0:	00 00       	nop
    16b2:	f6 c1       	rjmp	.+1004   	; 0x1aa0 <menu_corroer_placa+0x482>
	LCD_CURSOR[0] = -1;
	PARADA_EMERGENCIA = 0;
	lcd_print_str(0,0,"  LEVANTANDO   ");
	lcd_print_str(1,0,"               ");
	motor_subir();
	while(!fdc_1()){
    16b4:	0e 94 c6 00 	call	0x18c	; 0x18c <fdc_1>
    16b8:	88 23       	and	r24, r24
    16ba:	c9 f2       	breq	.-78     	; 0x166e <menu_corroer_placa+0x50>
			lcd_print_str(1,0,"  EMERGENCIA   ");
			_delay_ms(1000);
			return;
		}
	}
	motor_parar();
    16bc:	0e 94 84 00 	call	0x108	; 0x108 <motor_parar>
	lcd_clear();
    16c0:	0e 94 d9 06 	call	0xdb2	; 0xdb2 <lcd_clear>
	lcd_set_mensagem(0,0,15,"Coloque a placa no suporte e entre com tempo de corrosao (minutos)");
    16c4:	2b e4       	ldi	r18, 0x4B	; 75
    16c6:	32 e0       	ldi	r19, 0x02	; 2
    16c8:	4f e0       	ldi	r20, 0x0F	; 15
    16ca:	60 e0       	ldi	r22, 0x00	; 0
    16cc:	80 e0       	ldi	r24, 0x00	; 0
    16ce:	0e 94 e8 06 	call	0xdd0	; 0xdd0 <lcd_set_mensagem>
	lcd_print_str(1,0,"           min ");
    16d2:	4e e8       	ldi	r20, 0x8E	; 142
    16d4:	52 e0       	ldi	r21, 0x02	; 2
    16d6:	60 e0       	ldi	r22, 0x00	; 0
    16d8:	81 e0       	ldi	r24, 0x01	; 1
    16da:	0e 94 d8 05 	call	0xbb0	; 0xbb0 <lcd_print_str>
	tempo = ler_int_pequeno(1,4,eeprom_read_word(ULTIMO_TEMPO_CORROSAO));
    16de:	80 91 00 01 	lds	r24, 0x0100
    16e2:	90 91 01 01 	lds	r25, 0x0101
    16e6:	0e 94 6b 16 	call	0x2cd6	; 0x2cd6 <__eerd_word_m328p>
    16ea:	bc 01       	movw	r22, r24
    16ec:	80 e0       	ldi	r24, 0x00	; 0
    16ee:	90 e0       	ldi	r25, 0x00	; 0
    16f0:	0e 94 e6 14 	call	0x29cc	; 0x29cc <__floatunsisf>
    16f4:	9b 01       	movw	r18, r22
    16f6:	ac 01       	movw	r20, r24
    16f8:	64 e0       	ldi	r22, 0x04	; 4
    16fa:	81 e0       	ldi	r24, 0x01	; 1
    16fc:	0e 94 3c 07 	call	0xe78	; 0xe78 <ler_int_pequeno>
    1700:	ec 01       	movw	r28, r24
	lcd_clear();
    1702:	0e 94 d9 06 	call	0xdb2	; 0xdb2 <lcd_clear>
	if(tempo>0){
    1706:	1c 16       	cp	r1, r28
    1708:	1d 06       	cpc	r1, r29
    170a:	0c f0       	brlt	.+2      	; 0x170e <menu_corroer_placa+0xf0>
    170c:	c9 c1       	rjmp	.+914    	; 0x1aa0 <menu_corroer_placa+0x482>
		if(PARADA_EMERGENCIA){
    170e:	80 91 57 06 	lds	r24, 0x0657
    1712:	88 23       	and	r24, r24
    1714:	b1 f0       	breq	.+44     	; 0x1742 <menu_corroer_placa+0x124>
			//Motor e aquecedor já parados durante a interrupção
			lcd_print_str(0,0,"    PARADA     ");
    1716:	4b e2       	ldi	r20, 0x2B	; 43
    1718:	52 e0       	ldi	r21, 0x02	; 2
    171a:	60 e0       	ldi	r22, 0x00	; 0
    171c:	80 e0       	ldi	r24, 0x00	; 0
    171e:	0e 94 d8 05 	call	0xbb0	; 0xbb0 <lcd_print_str>
			lcd_print_str(1,0,"  EMERGENCIA   ");
    1722:	4b e3       	ldi	r20, 0x3B	; 59
    1724:	52 e0       	ldi	r21, 0x02	; 2
    1726:	60 e0       	ldi	r22, 0x00	; 0
    1728:	81 e0       	ldi	r24, 0x01	; 1
    172a:	0e 94 d8 05 	call	0xbb0	; 0xbb0 <lcd_print_str>
    172e:	ef ef       	ldi	r30, 0xFF	; 255
    1730:	f3 ed       	ldi	r31, 0xD3	; 211
    1732:	20 e3       	ldi	r18, 0x30	; 48
    1734:	e1 50       	subi	r30, 0x01	; 1
    1736:	f0 40       	sbci	r31, 0x00	; 0
    1738:	20 40       	sbci	r18, 0x00	; 0
    173a:	e1 f7       	brne	.-8      	; 0x1734 <menu_corroer_placa+0x116>
    173c:	00 c0       	rjmp	.+0      	; 0x173e <menu_corroer_placa+0x120>
    173e:	00 00       	nop
    1740:	af c1       	rjmp	.+862    	; 0x1aa0 <menu_corroer_placa+0x482>
			_delay_ms(1000);
			return;
		}
		eeprom_write_word(ULTIMO_TEMPO_CORROSAO, tempo);
    1742:	be 01       	movw	r22, r28
    1744:	80 91 00 01 	lds	r24, 0x0100
    1748:	90 91 01 01 	lds	r25, 0x0101
    174c:	0e 94 91 16 	call	0x2d22	; 0x2d22 <__eewr_word_m328p>
		tempo *= 60;
		lcd_print_str(0,0,"   DESCENDO    ");
    1750:	4e e9       	ldi	r20, 0x9E	; 158
    1752:	52 e0       	ldi	r21, 0x02	; 2
    1754:	60 e0       	ldi	r22, 0x00	; 0
    1756:	80 e0       	ldi	r24, 0x00	; 0
    1758:	0e 94 d8 05 	call	0xbb0	; 0xbb0 <lcd_print_str>
		lcd_print_str(1,0,"               ");
    175c:	4b e1       	ldi	r20, 0x1B	; 27
    175e:	52 e0       	ldi	r21, 0x02	; 2
    1760:	60 e0       	ldi	r22, 0x00	; 0
    1762:	81 e0       	ldi	r24, 0x01	; 1
    1764:	0e 94 d8 05 	call	0xbb0	; 0xbb0 <lcd_print_str>
		motor_descer();
    1768:	0e 94 81 00 	call	0x102	; 0x102 <motor_descer>
		while(!fdc_2()){
    176c:	23 c0       	rjmp	.+70     	; 0x17b4 <menu_corroer_placa+0x196>
    176e:	3f ef       	ldi	r19, 0xFF	; 255
    1770:	41 ee       	ldi	r20, 0xE1	; 225
    1772:	54 e0       	ldi	r21, 0x04	; 4
    1774:	31 50       	subi	r19, 0x01	; 1
    1776:	40 40       	sbci	r20, 0x00	; 0
    1778:	50 40       	sbci	r21, 0x00	; 0
    177a:	e1 f7       	brne	.-8      	; 0x1774 <menu_corroer_placa+0x156>
    177c:	00 c0       	rjmp	.+0      	; 0x177e <menu_corroer_placa+0x160>
    177e:	00 00       	nop
			_delay_ms(100);
			if(PARADA_EMERGENCIA){
    1780:	80 91 57 06 	lds	r24, 0x0657
    1784:	88 23       	and	r24, r24
    1786:	b1 f0       	breq	.+44     	; 0x17b4 <menu_corroer_placa+0x196>
				//Motor e aquecedor já parados durante a interrupção
				lcd_print_str(0,0,"    PARADA     ");
    1788:	4b e2       	ldi	r20, 0x2B	; 43
    178a:	52 e0       	ldi	r21, 0x02	; 2
    178c:	60 e0       	ldi	r22, 0x00	; 0
    178e:	80 e0       	ldi	r24, 0x00	; 0
    1790:	0e 94 d8 05 	call	0xbb0	; 0xbb0 <lcd_print_str>
				lcd_print_str(1,0,"  EMERGENCIA   ");
    1794:	4b e3       	ldi	r20, 0x3B	; 59
    1796:	52 e0       	ldi	r21, 0x02	; 2
    1798:	60 e0       	ldi	r22, 0x00	; 0
    179a:	81 e0       	ldi	r24, 0x01	; 1
    179c:	0e 94 d8 05 	call	0xbb0	; 0xbb0 <lcd_print_str>
    17a0:	8f ef       	ldi	r24, 0xFF	; 255
    17a2:	93 ed       	ldi	r25, 0xD3	; 211
    17a4:	e0 e3       	ldi	r30, 0x30	; 48
    17a6:	81 50       	subi	r24, 0x01	; 1
    17a8:	90 40       	sbci	r25, 0x00	; 0
    17aa:	e0 40       	sbci	r30, 0x00	; 0
    17ac:	e1 f7       	brne	.-8      	; 0x17a6 <menu_corroer_placa+0x188>
    17ae:	00 c0       	rjmp	.+0      	; 0x17b0 <menu_corroer_placa+0x192>
    17b0:	00 00       	nop
    17b2:	76 c1       	rjmp	.+748    	; 0x1aa0 <menu_corroer_placa+0x482>
		eeprom_write_word(ULTIMO_TEMPO_CORROSAO, tempo);
		tempo *= 60;
		lcd_print_str(0,0,"   DESCENDO    ");
		lcd_print_str(1,0,"               ");
		motor_descer();
		while(!fdc_2()){
    17b4:	0e 94 ca 00 	call	0x194	; 0x194 <fdc_2>
    17b8:	88 23       	and	r24, r24
    17ba:	c9 f2       	breq	.-78     	; 0x176e <menu_corroer_placa+0x150>
				lcd_print_str(1,0,"  EMERGENCIA   ");
				_delay_ms(1000);
				return;
			}
		}
		motor_parar();
    17bc:	0e 94 84 00 	call	0x108	; 0x108 <motor_parar>
		//Comecando corrosão
		SEGUNDOS = 0;
    17c0:	10 92 db 06 	sts	0x06DB, r1
    17c4:	10 92 dc 06 	sts	0x06DC, r1
    17c8:	10 92 dd 06 	sts	0x06DD, r1
    17cc:	10 92 de 06 	sts	0x06DE, r1
			lcd_print_str(1,0,"  EMERGENCIA   ");
			_delay_ms(1000);
			return;
		}
		eeprom_write_word(ULTIMO_TEMPO_CORROSAO, tempo);
		tempo *= 60;
    17d0:	2c e3       	ldi	r18, 0x3C	; 60
    17d2:	2c 9f       	mul	r18, r28
    17d4:	c0 01       	movw	r24, r0
    17d6:	2d 9f       	mul	r18, r29
    17d8:	90 0d       	add	r25, r0
    17da:	11 24       	eor	r1, r1
			}
		}
		motor_parar();
		//Comecando corrosão
		SEGUNDOS = 0;
		while(tempo-SEGUNDOS>0){
    17dc:	2c 01       	movw	r4, r24
    17de:	66 24       	eor	r6, r6
    17e0:	57 fc       	sbrc	r5, 7
    17e2:	60 94       	com	r6
    17e4:	76 2c       	mov	r7, r6
    17e6:	14 14       	cp	r1, r4
    17e8:	15 04       	cpc	r1, r5
    17ea:	16 04       	cpc	r1, r6
    17ec:	17 04       	cpc	r1, r7
    17ee:	0c f0       	brlt	.+2      	; 0x17f2 <menu_corroer_placa+0x1d4>
    17f0:	0a c1       	rjmp	.+532    	; 0x1a06 <menu_corroer_placa+0x3e8>
    17f2:	c3 01       	movw	r24, r6
    17f4:	b2 01       	movw	r22, r4
			int seg = (tempo-SEGUNDOS)%60;
    17f6:	2c e3       	ldi	r18, 0x3C	; 60
    17f8:	30 e0       	ldi	r19, 0x00	; 0
    17fa:	40 e0       	ldi	r20, 0x00	; 0
    17fc:	50 e0       	ldi	r21, 0x00	; 0
    17fe:	0e 94 13 16 	call	0x2c26	; 0x2c26 <__divmodsi4>
    1802:	1b 01       	movw	r2, r22
			int min = (tempo-SEGUNDOS)/60;
    1804:	89 01       	movw	r16, r18
			float t1 = corrigir_sensor(0,ADC_LEITURA[0]);
    1806:	e1 e5       	ldi	r30, 0x51	; 81
    1808:	f6 e0       	ldi	r31, 0x06	; 6
    180a:	60 81       	ld	r22, Z
    180c:	71 81       	ldd	r23, Z+1	; 0x01
    180e:	88 27       	eor	r24, r24
    1810:	77 fd       	sbrc	r23, 7
    1812:	80 95       	com	r24
    1814:	98 2f       	mov	r25, r24
    1816:	0e 94 e8 14 	call	0x29d0	; 0x29d0 <__floatsisf>
    181a:	ab 01       	movw	r20, r22
    181c:	bc 01       	movw	r22, r24
    181e:	80 e0       	ldi	r24, 0x00	; 0
    1820:	0e 94 ce 08 	call	0x119c	; 0x119c <corrigir_sensor>
    1824:	6b 01       	movw	r12, r22
    1826:	7c 01       	movw	r14, r24
			float t2 = corrigir_sensor(1,ADC_LEITURA[1]);
    1828:	e3 e5       	ldi	r30, 0x53	; 83
    182a:	f6 e0       	ldi	r31, 0x06	; 6
    182c:	60 81       	ld	r22, Z
    182e:	71 81       	ldd	r23, Z+1	; 0x01
    1830:	88 27       	eor	r24, r24
    1832:	77 fd       	sbrc	r23, 7
    1834:	80 95       	com	r24
    1836:	98 2f       	mov	r25, r24
    1838:	0e 94 e8 14 	call	0x29d0	; 0x29d0 <__floatsisf>
    183c:	ab 01       	movw	r20, r22
    183e:	bc 01       	movw	r22, r24
    1840:	81 e0       	ldi	r24, 0x01	; 1
    1842:	0e 94 ce 08 	call	0x119c	; 0x119c <corrigir_sensor>
    1846:	4b 01       	movw	r8, r22
    1848:	5c 01       	movw	r10, r24
			if(PARADA_EMERGENCIA){
    184a:	80 91 57 06 	lds	r24, 0x0657
    184e:	88 23       	and	r24, r24
    1850:	b1 f0       	breq	.+44     	; 0x187e <menu_corroer_placa+0x260>
				//Motor e aquecedor já parados durante a interrupção
				lcd_print_str(0,0,"    PARADA     ");
    1852:	4b e2       	ldi	r20, 0x2B	; 43
    1854:	52 e0       	ldi	r21, 0x02	; 2
    1856:	60 e0       	ldi	r22, 0x00	; 0
    1858:	80 e0       	ldi	r24, 0x00	; 0
    185a:	0e 94 d8 05 	call	0xbb0	; 0xbb0 <lcd_print_str>
				lcd_print_str(1,0,"  EMERGENCIA   ");
    185e:	4b e3       	ldi	r20, 0x3B	; 59
    1860:	52 e0       	ldi	r21, 0x02	; 2
    1862:	60 e0       	ldi	r22, 0x00	; 0
    1864:	81 e0       	ldi	r24, 0x01	; 1
    1866:	0e 94 d8 05 	call	0xbb0	; 0xbb0 <lcd_print_str>
    186a:	ff ef       	ldi	r31, 0xFF	; 255
    186c:	23 ed       	ldi	r18, 0xD3	; 211
    186e:	30 e3       	ldi	r19, 0x30	; 48
    1870:	f1 50       	subi	r31, 0x01	; 1
    1872:	20 40       	sbci	r18, 0x00	; 0
    1874:	30 40       	sbci	r19, 0x00	; 0
    1876:	e1 f7       	brne	.-8      	; 0x1870 <menu_corroer_placa+0x252>
    1878:	00 c0       	rjmp	.+0      	; 0x187a <menu_corroer_placa+0x25c>
    187a:	00 00       	nop
    187c:	11 c1       	rjmp	.+546    	; 0x1aa0 <menu_corroer_placa+0x482>
				_delay_ms(1000);
				return;
			}
			if(t1<eeprom_read_float(TEMP_MINMAX+0) && 
    187e:	c0 91 02 01 	lds	r28, 0x0102
    1882:	d0 91 03 01 	lds	r29, 0x0103
    1886:	ce 01       	movw	r24, r28
    1888:	0e 94 65 16 	call	0x2cca	; 0x2cca <__eerd_dword_m328p>
    188c:	9b 01       	movw	r18, r22
    188e:	ac 01       	movw	r20, r24
    1890:	c7 01       	movw	r24, r14
    1892:	b6 01       	movw	r22, r12
    1894:	0e 94 49 14 	call	0x2892	; 0x2892 <__cmpsf2>
    1898:	88 23       	and	r24, r24
    189a:	74 f4       	brge	.+28     	; 0x18b8 <menu_corroer_placa+0x29a>
			   t2<eeprom_read_float(TEMP_MINMAX+2)){
    189c:	ce 01       	movw	r24, r28
    189e:	08 96       	adiw	r24, 0x08	; 8
    18a0:	0e 94 65 16 	call	0x2cca	; 0x2cca <__eerd_dword_m328p>
    18a4:	9b 01       	movw	r18, r22
    18a6:	ac 01       	movw	r20, r24
				lcd_print_str(0,0,"    PARADA     ");
				lcd_print_str(1,0,"  EMERGENCIA   ");
				_delay_ms(1000);
				return;
			}
			if(t1<eeprom_read_float(TEMP_MINMAX+0) && 
    18a8:	c5 01       	movw	r24, r10
    18aa:	b4 01       	movw	r22, r8
    18ac:	0e 94 49 14 	call	0x2892	; 0x2892 <__cmpsf2>
    18b0:	88 23       	and	r24, r24
    18b2:	14 f4       	brge	.+4      	; 0x18b8 <menu_corroer_placa+0x29a>
			   t2<eeprom_read_float(TEMP_MINMAX+2)){
				aquecedor_ligar();
    18b4:	0e 94 7a 00 	call	0xf4	; 0xf4 <aquecedor_ligar>
			}
			if(t1>eeprom_read_float(TEMP_MINMAX+1) ||
    18b8:	c0 91 02 01 	lds	r28, 0x0102
    18bc:	d0 91 03 01 	lds	r29, 0x0103
    18c0:	ce 01       	movw	r24, r28
    18c2:	04 96       	adiw	r24, 0x04	; 4
    18c4:	0e 94 65 16 	call	0x2cca	; 0x2cca <__eerd_dword_m328p>
    18c8:	9b 01       	movw	r18, r22
    18ca:	ac 01       	movw	r20, r24
    18cc:	c7 01       	movw	r24, r14
    18ce:	b6 01       	movw	r22, r12
    18d0:	0e 94 98 15 	call	0x2b30	; 0x2b30 <__gesf2>
    18d4:	18 16       	cp	r1, r24
    18d6:	64 f0       	brlt	.+24     	; 0x18f0 <menu_corroer_placa+0x2d2>
			   t2>eeprom_read_float(TEMP_MINMAX+3)){
    18d8:	ce 01       	movw	r24, r28
    18da:	0c 96       	adiw	r24, 0x0c	; 12
    18dc:	0e 94 65 16 	call	0x2cca	; 0x2cca <__eerd_dword_m328p>
    18e0:	9b 01       	movw	r18, r22
    18e2:	ac 01       	movw	r20, r24
			}
			if(t1<eeprom_read_float(TEMP_MINMAX+0) && 
			   t2<eeprom_read_float(TEMP_MINMAX+2)){
				aquecedor_ligar();
			}
			if(t1>eeprom_read_float(TEMP_MINMAX+1) ||
    18e4:	c5 01       	movw	r24, r10
    18e6:	b4 01       	movw	r22, r8
    18e8:	0e 94 98 15 	call	0x2b30	; 0x2b30 <__gesf2>
    18ec:	18 16       	cp	r1, r24
    18ee:	14 f4       	brge	.+4      	; 0x18f4 <menu_corroer_placa+0x2d6>
			   t2>eeprom_read_float(TEMP_MINMAX+3)){
				aquecedor_desligar();
    18f0:	0e 94 7c 00 	call	0xf8	; 0xf8 <aquecedor_desligar>
			}
			lcd_print_str(0,0,"T1:           m");
    18f4:	4e ea       	ldi	r20, 0xAE	; 174
    18f6:	52 e0       	ldi	r21, 0x02	; 2
    18f8:	60 e0       	ldi	r22, 0x00	; 0
    18fa:	80 e0       	ldi	r24, 0x00	; 0
    18fc:	0e 94 d8 05 	call	0xbb0	; 0xbb0 <lcd_print_str>
			lcd_print_str(1,0,"T2:         seg");
    1900:	4e eb       	ldi	r20, 0xBE	; 190
    1902:	52 e0       	ldi	r21, 0x02	; 2
    1904:	60 e0       	ldi	r22, 0x00	; 0
    1906:	81 e0       	ldi	r24, 0x01	; 1
    1908:	0e 94 d8 05 	call	0xbb0	; 0xbb0 <lcd_print_str>
			lcd_print_float_31(0,3,t1);
    190c:	a7 01       	movw	r20, r14
    190e:	96 01       	movw	r18, r12
    1910:	63 e0       	ldi	r22, 0x03	; 3
    1912:	80 e0       	ldi	r24, 0x00	; 0
    1914:	0e 94 4e 06 	call	0xc9c	; 0xc9c <lcd_print_float_31>
			lcd_print_float_31(1,3,t2);
    1918:	a5 01       	movw	r20, r10
    191a:	94 01       	movw	r18, r8
    191c:	63 e0       	ldi	r22, 0x03	; 3
    191e:	81 e0       	ldi	r24, 0x01	; 1
    1920:	0e 94 4e 06 	call	0xc9c	; 0xc9c <lcd_print_float_31>
			lcd_print_int(0,11,min);
    1924:	a8 01       	movw	r20, r16
    1926:	6b e0       	ldi	r22, 0x0B	; 11
    1928:	80 e0       	ldi	r24, 0x00	; 0
    192a:	0e 94 f0 05 	call	0xbe0	; 0xbe0 <lcd_print_int>
			lcd_print_int(1,11,seg);
    192e:	a1 01       	movw	r20, r2
    1930:	6b e0       	ldi	r22, 0x0B	; 11
    1932:	81 e0       	ldi	r24, 0x01	; 1
    1934:	0e 94 f0 05 	call	0xbe0	; 0xbe0 <lcd_print_int>
			motor_subir();
    1938:	0e 94 7e 00 	call	0xfc	; 0xfc <motor_subir>
    193c:	4f ef       	ldi	r20, 0xFF	; 255
    193e:	59 e6       	ldi	r21, 0x69	; 105
    1940:	88 e1       	ldi	r24, 0x18	; 24
    1942:	41 50       	subi	r20, 0x01	; 1
    1944:	50 40       	sbci	r21, 0x00	; 0
    1946:	80 40       	sbci	r24, 0x00	; 0
    1948:	e1 f7       	brne	.-8      	; 0x1942 <menu_corroer_placa+0x324>
    194a:	00 c0       	rjmp	.+0      	; 0x194c <menu_corroer_placa+0x32e>
    194c:	00 00       	nop
			_delay_ms(500);
			if(PARADA_EMERGENCIA){
    194e:	80 91 57 06 	lds	r24, 0x0657
    1952:	88 23       	and	r24, r24
    1954:	b1 f0       	breq	.+44     	; 0x1982 <menu_corroer_placa+0x364>
				//Motor e aquecedor já parados durante a interrupção
				lcd_print_str(0,0,"    PARADA     ");
    1956:	4b e2       	ldi	r20, 0x2B	; 43
    1958:	52 e0       	ldi	r21, 0x02	; 2
    195a:	60 e0       	ldi	r22, 0x00	; 0
    195c:	80 e0       	ldi	r24, 0x00	; 0
    195e:	0e 94 d8 05 	call	0xbb0	; 0xbb0 <lcd_print_str>
				lcd_print_str(1,0,"  EMERGENCIA   ");
    1962:	4b e3       	ldi	r20, 0x3B	; 59
    1964:	52 e0       	ldi	r21, 0x02	; 2
    1966:	60 e0       	ldi	r22, 0x00	; 0
    1968:	81 e0       	ldi	r24, 0x01	; 1
    196a:	0e 94 d8 05 	call	0xbb0	; 0xbb0 <lcd_print_str>
    196e:	9f ef       	ldi	r25, 0xFF	; 255
    1970:	e3 ed       	ldi	r30, 0xD3	; 211
    1972:	f0 e3       	ldi	r31, 0x30	; 48
    1974:	91 50       	subi	r25, 0x01	; 1
    1976:	e0 40       	sbci	r30, 0x00	; 0
    1978:	f0 40       	sbci	r31, 0x00	; 0
    197a:	e1 f7       	brne	.-8      	; 0x1974 <menu_corroer_placa+0x356>
    197c:	00 c0       	rjmp	.+0      	; 0x197e <menu_corroer_placa+0x360>
    197e:	00 00       	nop
    1980:	8f c0       	rjmp	.+286    	; 0x1aa0 <menu_corroer_placa+0x482>
				_delay_ms(1000);
				return;
			}
			motor_descer();
    1982:	0e 94 81 00 	call	0x102	; 0x102 <motor_descer>
			while(!fdc_2()){
    1986:	23 c0       	rjmp	.+70     	; 0x19ce <menu_corroer_placa+0x3b0>
    1988:	2f ef       	ldi	r18, 0xFF	; 255
    198a:	31 ee       	ldi	r19, 0xE1	; 225
    198c:	44 e0       	ldi	r20, 0x04	; 4
    198e:	21 50       	subi	r18, 0x01	; 1
    1990:	30 40       	sbci	r19, 0x00	; 0
    1992:	40 40       	sbci	r20, 0x00	; 0
    1994:	e1 f7       	brne	.-8      	; 0x198e <menu_corroer_placa+0x370>
    1996:	00 c0       	rjmp	.+0      	; 0x1998 <menu_corroer_placa+0x37a>
    1998:	00 00       	nop
				_delay_ms(100);
				if(PARADA_EMERGENCIA){
    199a:	80 91 57 06 	lds	r24, 0x0657
    199e:	88 23       	and	r24, r24
    19a0:	b1 f0       	breq	.+44     	; 0x19ce <menu_corroer_placa+0x3b0>
					//Motor e aquecedor já parados durante a interrupção
					lcd_print_str(0,0,"    PARADA     ");
    19a2:	4b e2       	ldi	r20, 0x2B	; 43
    19a4:	52 e0       	ldi	r21, 0x02	; 2
    19a6:	60 e0       	ldi	r22, 0x00	; 0
    19a8:	80 e0       	ldi	r24, 0x00	; 0
    19aa:	0e 94 d8 05 	call	0xbb0	; 0xbb0 <lcd_print_str>
					lcd_print_str(1,0,"  EMERGENCIA   ");
    19ae:	4b e3       	ldi	r20, 0x3B	; 59
    19b0:	52 e0       	ldi	r21, 0x02	; 2
    19b2:	60 e0       	ldi	r22, 0x00	; 0
    19b4:	81 e0       	ldi	r24, 0x01	; 1
    19b6:	0e 94 d8 05 	call	0xbb0	; 0xbb0 <lcd_print_str>
    19ba:	5f ef       	ldi	r21, 0xFF	; 255
    19bc:	83 ed       	ldi	r24, 0xD3	; 211
    19be:	90 e3       	ldi	r25, 0x30	; 48
    19c0:	51 50       	subi	r21, 0x01	; 1
    19c2:	80 40       	sbci	r24, 0x00	; 0
    19c4:	90 40       	sbci	r25, 0x00	; 0
    19c6:	e1 f7       	brne	.-8      	; 0x19c0 <menu_corroer_placa+0x3a2>
    19c8:	00 c0       	rjmp	.+0      	; 0x19ca <menu_corroer_placa+0x3ac>
    19ca:	00 00       	nop
    19cc:	69 c0       	rjmp	.+210    	; 0x1aa0 <menu_corroer_placa+0x482>
				lcd_print_str(1,0,"  EMERGENCIA   ");
				_delay_ms(1000);
				return;
			}
			motor_descer();
			while(!fdc_2()){
    19ce:	0e 94 ca 00 	call	0x194	; 0x194 <fdc_2>
    19d2:	88 23       	and	r24, r24
    19d4:	c9 f2       	breq	.-78     	; 0x1988 <menu_corroer_placa+0x36a>
					lcd_print_str(1,0,"  EMERGENCIA   ");
					_delay_ms(1000);
					return;
				}
			}
			motor_parar();
    19d6:	0e 94 84 00 	call	0x108	; 0x108 <motor_parar>
			}
		}
		motor_parar();
		//Comecando corrosão
		SEGUNDOS = 0;
		while(tempo-SEGUNDOS>0){
    19da:	80 91 db 06 	lds	r24, 0x06DB
    19de:	90 91 dc 06 	lds	r25, 0x06DC
    19e2:	a0 91 dd 06 	lds	r26, 0x06DD
    19e6:	b0 91 de 06 	lds	r27, 0x06DE
    19ea:	a3 01       	movw	r20, r6
    19ec:	92 01       	movw	r18, r4
    19ee:	28 1b       	sub	r18, r24
    19f0:	39 0b       	sbc	r19, r25
    19f2:	4a 0b       	sbc	r20, r26
    19f4:	5b 0b       	sbc	r21, r27
    19f6:	ca 01       	movw	r24, r20
    19f8:	b9 01       	movw	r22, r18
    19fa:	12 16       	cp	r1, r18
    19fc:	13 06       	cpc	r1, r19
    19fe:	14 06       	cpc	r1, r20
    1a00:	15 06       	cpc	r1, r21
    1a02:	0c f4       	brge	.+2      	; 0x1a06 <menu_corroer_placa+0x3e8>
    1a04:	f8 ce       	rjmp	.-528    	; 0x17f6 <menu_corroer_placa+0x1d8>
					return;
				}
			}
			motor_parar();
		}
		lcd_print_str(0,0,"  LEVANTANDO   ");
    1a06:	4b e0       	ldi	r20, 0x0B	; 11
    1a08:	52 e0       	ldi	r21, 0x02	; 2
    1a0a:	60 e0       	ldi	r22, 0x00	; 0
    1a0c:	80 e0       	ldi	r24, 0x00	; 0
    1a0e:	0e 94 d8 05 	call	0xbb0	; 0xbb0 <lcd_print_str>
		lcd_print_str(1,0,"               ");
    1a12:	4b e1       	ldi	r20, 0x1B	; 27
    1a14:	52 e0       	ldi	r21, 0x02	; 2
    1a16:	60 e0       	ldi	r22, 0x00	; 0
    1a18:	81 e0       	ldi	r24, 0x01	; 1
    1a1a:	0e 94 d8 05 	call	0xbb0	; 0xbb0 <lcd_print_str>
		motor_subir();
    1a1e:	0e 94 7e 00 	call	0xfc	; 0xfc <motor_subir>
		while(!fdc_1()){
    1a22:	23 c0       	rjmp	.+70     	; 0x1a6a <menu_corroer_placa+0x44c>
    1a24:	3f ef       	ldi	r19, 0xFF	; 255
    1a26:	41 ee       	ldi	r20, 0xE1	; 225
    1a28:	54 e0       	ldi	r21, 0x04	; 4
    1a2a:	31 50       	subi	r19, 0x01	; 1
    1a2c:	40 40       	sbci	r20, 0x00	; 0
    1a2e:	50 40       	sbci	r21, 0x00	; 0
    1a30:	e1 f7       	brne	.-8      	; 0x1a2a <menu_corroer_placa+0x40c>
    1a32:	00 c0       	rjmp	.+0      	; 0x1a34 <menu_corroer_placa+0x416>
    1a34:	00 00       	nop
			_delay_ms(100);
			if(PARADA_EMERGENCIA){
    1a36:	80 91 57 06 	lds	r24, 0x0657
    1a3a:	88 23       	and	r24, r24
    1a3c:	b1 f0       	breq	.+44     	; 0x1a6a <menu_corroer_placa+0x44c>
				//Motor e aquecedor já parados durante a interrupção
				lcd_print_str(0,0,"    PARADA     ");
    1a3e:	4b e2       	ldi	r20, 0x2B	; 43
    1a40:	52 e0       	ldi	r21, 0x02	; 2
    1a42:	60 e0       	ldi	r22, 0x00	; 0
    1a44:	80 e0       	ldi	r24, 0x00	; 0
    1a46:	0e 94 d8 05 	call	0xbb0	; 0xbb0 <lcd_print_str>
				lcd_print_str(1,0,"  EMERGENCIA   ");
    1a4a:	4b e3       	ldi	r20, 0x3B	; 59
    1a4c:	52 e0       	ldi	r21, 0x02	; 2
    1a4e:	60 e0       	ldi	r22, 0x00	; 0
    1a50:	81 e0       	ldi	r24, 0x01	; 1
    1a52:	0e 94 d8 05 	call	0xbb0	; 0xbb0 <lcd_print_str>
    1a56:	8f ef       	ldi	r24, 0xFF	; 255
    1a58:	93 ed       	ldi	r25, 0xD3	; 211
    1a5a:	e0 e3       	ldi	r30, 0x30	; 48
    1a5c:	81 50       	subi	r24, 0x01	; 1
    1a5e:	90 40       	sbci	r25, 0x00	; 0
    1a60:	e0 40       	sbci	r30, 0x00	; 0
    1a62:	e1 f7       	brne	.-8      	; 0x1a5c <menu_corroer_placa+0x43e>
    1a64:	00 c0       	rjmp	.+0      	; 0x1a66 <menu_corroer_placa+0x448>
    1a66:	00 00       	nop
    1a68:	1b c0       	rjmp	.+54     	; 0x1aa0 <menu_corroer_placa+0x482>
			motor_parar();
		}
		lcd_print_str(0,0,"  LEVANTANDO   ");
		lcd_print_str(1,0,"               ");
		motor_subir();
		while(!fdc_1()){
    1a6a:	0e 94 c6 00 	call	0x18c	; 0x18c <fdc_1>
    1a6e:	88 23       	and	r24, r24
    1a70:	c9 f2       	breq	.-78     	; 0x1a24 <menu_corroer_placa+0x406>
				lcd_print_str(1,0,"  EMERGENCIA   ");
				_delay_ms(1000);
				return;
			}
		}
		motor_parar();
    1a72:	0e 94 84 00 	call	0x108	; 0x108 <motor_parar>
		lcd_print_str(0,0,"     FIM       ");
    1a76:	4e ec       	ldi	r20, 0xCE	; 206
    1a78:	52 e0       	ldi	r21, 0x02	; 2
    1a7a:	60 e0       	ldi	r22, 0x00	; 0
    1a7c:	80 e0       	ldi	r24, 0x00	; 0
    1a7e:	0e 94 d8 05 	call	0xbb0	; 0xbb0 <lcd_print_str>
		lcd_print_str(1,0,"               ");
    1a82:	4b e1       	ldi	r20, 0x1B	; 27
    1a84:	52 e0       	ldi	r21, 0x02	; 2
    1a86:	60 e0       	ldi	r22, 0x00	; 0
    1a88:	81 e0       	ldi	r24, 0x01	; 1
    1a8a:	0e 94 d8 05 	call	0xbb0	; 0xbb0 <lcd_print_str>
    1a8e:	ff ef       	ldi	r31, 0xFF	; 255
    1a90:	23 ed       	ldi	r18, 0xD3	; 211
    1a92:	30 e3       	ldi	r19, 0x30	; 48
    1a94:	f1 50       	subi	r31, 0x01	; 1
    1a96:	20 40       	sbci	r18, 0x00	; 0
    1a98:	30 40       	sbci	r19, 0x00	; 0
    1a9a:	e1 f7       	brne	.-8      	; 0x1a94 <menu_corroer_placa+0x476>
    1a9c:	00 c0       	rjmp	.+0      	; 0x1a9e <menu_corroer_placa+0x480>
    1a9e:	00 00       	nop
		_delay_ms(1000);
	}
}
    1aa0:	df 91       	pop	r29
    1aa2:	cf 91       	pop	r28
    1aa4:	1f 91       	pop	r17
    1aa6:	0f 91       	pop	r16
    1aa8:	ff 90       	pop	r15
    1aaa:	ef 90       	pop	r14
    1aac:	df 90       	pop	r13
    1aae:	cf 90       	pop	r12
    1ab0:	bf 90       	pop	r11
    1ab2:	af 90       	pop	r10
    1ab4:	9f 90       	pop	r9
    1ab6:	8f 90       	pop	r8
    1ab8:	7f 90       	pop	r7
    1aba:	6f 90       	pop	r6
    1abc:	5f 90       	pop	r5
    1abe:	4f 90       	pop	r4
    1ac0:	3f 90       	pop	r3
    1ac2:	2f 90       	pop	r2
    1ac4:	08 95       	ret

00001ac6 <menu_liga_aquecedor>:
void menu_liga_aquecedor(){
    1ac6:	cf 93       	push	r28
	char ultimo_estado = -1;
	lcd_clear();
    1ac8:	0e 94 d9 06 	call	0xdb2	; 0xdb2 <lcd_clear>
	LCD_CURSOR[0] = -1;
    1acc:	8f ef       	ldi	r24, 0xFF	; 255
    1ace:	80 93 55 06 	sts	0x0655, r24
		lcd_print_str(1,0,"               ");
		_delay_ms(1000);
	}
}
void menu_liga_aquecedor(){
	char ultimo_estado = -1;
    1ad2:	cf ef       	ldi	r28, 0xFF	; 255
	lcd_clear();
	LCD_CURSOR[0] = -1;
	while(1){
		if(estado_aquecedor()!=ultimo_estado){
    1ad4:	0e 94 76 00 	call	0xec	; 0xec <estado_aquecedor>
    1ad8:	8c 17       	cp	r24, r28
    1ada:	01 f1       	breq	.+64     	; 0x1b1c <menu_liga_aquecedor+0x56>
			ultimo_estado = estado_aquecedor();
    1adc:	0e 94 76 00 	call	0xec	; 0xec <estado_aquecedor>
    1ae0:	c8 2f       	mov	r28, r24
			if(ultimo_estado){
    1ae2:	88 23       	and	r24, r24
    1ae4:	71 f0       	breq	.+28     	; 0x1b02 <menu_liga_aquecedor+0x3c>
				lcd_set_mensagem(0,0,15,"Aquecedor LIGADO!");
    1ae6:	2e ed       	ldi	r18, 0xDE	; 222
    1ae8:	32 e0       	ldi	r19, 0x02	; 2
    1aea:	4f e0       	ldi	r20, 0x0F	; 15
    1aec:	60 e0       	ldi	r22, 0x00	; 0
    1aee:	80 e0       	ldi	r24, 0x00	; 0
    1af0:	0e 94 e8 06 	call	0xdd0	; 0xdd0 <lcd_set_mensagem>
				lcd_print_str(1,0,"\x08voltar  desl.\x09");
    1af4:	40 ef       	ldi	r20, 0xF0	; 240
    1af6:	52 e0       	ldi	r21, 0x02	; 2
    1af8:	60 e0       	ldi	r22, 0x00	; 0
    1afa:	81 e0       	ldi	r24, 0x01	; 1
    1afc:	0e 94 d8 05 	call	0xbb0	; 0xbb0 <lcd_print_str>
    1b00:	0d c0       	rjmp	.+26     	; 0x1b1c <menu_liga_aquecedor+0x56>
			}else{
				lcd_set_mensagem(0,0,15,"Aquecedor DESLIGADO");
    1b02:	20 e0       	ldi	r18, 0x00	; 0
    1b04:	33 e0       	ldi	r19, 0x03	; 3
    1b06:	4f e0       	ldi	r20, 0x0F	; 15
    1b08:	60 e0       	ldi	r22, 0x00	; 0
    1b0a:	80 e0       	ldi	r24, 0x00	; 0
    1b0c:	0e 94 e8 06 	call	0xdd0	; 0xdd0 <lcd_set_mensagem>
				lcd_print_str(1,0,"\x08voltar  ligar\x09");
    1b10:	44 e1       	ldi	r20, 0x14	; 20
    1b12:	53 e0       	ldi	r21, 0x03	; 3
    1b14:	60 e0       	ldi	r22, 0x00	; 0
    1b16:	81 e0       	ldi	r24, 0x01	; 1
    1b18:	0e 94 d8 05 	call	0xbb0	; 0xbb0 <lcd_print_str>
			}				
		}
		switch(botoes_ler(1000)){
    1b1c:	88 ee       	ldi	r24, 0xE8	; 232
    1b1e:	93 e0       	ldi	r25, 0x03	; 3
    1b20:	0e 94 ce 00 	call	0x19c	; 0x19c <botoes_ler>
    1b24:	83 30       	cpi	r24, 0x03	; 3
    1b26:	19 f0       	breq	.+6      	; 0x1b2e <menu_liga_aquecedor+0x68>
    1b28:	84 30       	cpi	r24, 0x04	; 4
    1b2a:	a1 f6       	brne	.-88     	; 0x1ad4 <menu_liga_aquecedor+0xe>
    1b2c:	0a c0       	rjmp	.+20     	; 0x1b42 <menu_liga_aquecedor+0x7c>
			case 3: 
				if(estado_aquecedor())aquecedor_desligar();
    1b2e:	0e 94 76 00 	call	0xec	; 0xec <estado_aquecedor>
    1b32:	88 23       	and	r24, r24
    1b34:	19 f0       	breq	.+6      	; 0x1b3c <menu_liga_aquecedor+0x76>
    1b36:	0e 94 7c 00 	call	0xf8	; 0xf8 <aquecedor_desligar>
    1b3a:	cc cf       	rjmp	.-104    	; 0x1ad4 <menu_liga_aquecedor+0xe>
				else aquecedor_ligar();
    1b3c:	0e 94 7a 00 	call	0xf4	; 0xf4 <aquecedor_ligar>
    1b40:	c9 cf       	rjmp	.-110    	; 0x1ad4 <menu_liga_aquecedor+0xe>
				break;
			case 4: return;
		}
	}
}
    1b42:	cf 91       	pop	r28
    1b44:	08 95       	ret

00001b46 <menu_subir_suporte>:
void menu_subir_suporte(){
	lcd_clear();
    1b46:	0e 94 d9 06 	call	0xdb2	; 0xdb2 <lcd_clear>
	LCD_CURSOR[0] = -1;
    1b4a:	8f ef       	ldi	r24, 0xFF	; 255
    1b4c:	80 93 55 06 	sts	0x0655, r24
	lcd_set_mensagem(0,0,15,"Aperte os botoes \x0A e \x0B para subir/descer o suporte ou \x08 para voltar");
    1b50:	24 e2       	ldi	r18, 0x24	; 36
    1b52:	33 e0       	ldi	r19, 0x03	; 3
    1b54:	4f e0       	ldi	r20, 0x0F	; 15
    1b56:	60 e0       	ldi	r22, 0x00	; 0
    1b58:	80 e0       	ldi	r24, 0x00	; 0
    1b5a:	0e 94 e8 06 	call	0xdd0	; 0xdd0 <lcd_set_mensagem>
	while(1){
		if(botao_esquerda())return;
    1b5e:	0e 94 c0 00 	call	0x180	; 0x180 <botao_esquerda>
    1b62:	81 11       	cpse	r24, r1
    1b64:	34 c0       	rjmp	.+104    	; 0x1bce <menu_subir_suporte+0x88>
		if(botao_cima() && !fdc_1()){
    1b66:	0e 94 b0 00 	call	0x160	; 0x160 <botao_cima>
    1b6a:	88 23       	and	r24, r24
    1b6c:	69 f0       	breq	.+26     	; 0x1b88 <menu_subir_suporte+0x42>
    1b6e:	0e 94 c6 00 	call	0x18c	; 0x18c <fdc_1>
    1b72:	81 11       	cpse	r24, r1
    1b74:	09 c0       	rjmp	.+18     	; 0x1b88 <menu_subir_suporte+0x42>
			motor_subir();
    1b76:	0e 94 7e 00 	call	0xfc	; 0xfc <motor_subir>
			lcd_print_str(1,0,"Subindo ");
    1b7a:	48 e6       	ldi	r20, 0x68	; 104
    1b7c:	53 e0       	ldi	r21, 0x03	; 3
    1b7e:	60 e0       	ldi	r22, 0x00	; 0
    1b80:	81 e0       	ldi	r24, 0x01	; 1
    1b82:	0e 94 d8 05 	call	0xbb0	; 0xbb0 <lcd_print_str>
    1b86:	19 c0       	rjmp	.+50     	; 0x1bba <menu_subir_suporte+0x74>
		}else if(botao_baixo() && !fdc_2()){
    1b88:	0e 94 b6 00 	call	0x16c	; 0x16c <botao_baixo>
    1b8c:	88 23       	and	r24, r24
    1b8e:	69 f0       	breq	.+26     	; 0x1baa <menu_subir_suporte+0x64>
    1b90:	0e 94 ca 00 	call	0x194	; 0x194 <fdc_2>
    1b94:	81 11       	cpse	r24, r1
    1b96:	09 c0       	rjmp	.+18     	; 0x1baa <menu_subir_suporte+0x64>
			motor_descer();
    1b98:	0e 94 81 00 	call	0x102	; 0x102 <motor_descer>
			lcd_print_str(1,0,"Descendo");
    1b9c:	41 e7       	ldi	r20, 0x71	; 113
    1b9e:	53 e0       	ldi	r21, 0x03	; 3
    1ba0:	60 e0       	ldi	r22, 0x00	; 0
    1ba2:	81 e0       	ldi	r24, 0x01	; 1
    1ba4:	0e 94 d8 05 	call	0xbb0	; 0xbb0 <lcd_print_str>
    1ba8:	08 c0       	rjmp	.+16     	; 0x1bba <menu_subir_suporte+0x74>
		}else{
			motor_parar();
    1baa:	0e 94 84 00 	call	0x108	; 0x108 <motor_parar>
			lcd_print_str(1,0,"Parado  ");
    1bae:	4a e7       	ldi	r20, 0x7A	; 122
    1bb0:	53 e0       	ldi	r21, 0x03	; 3
    1bb2:	60 e0       	ldi	r22, 0x00	; 0
    1bb4:	81 e0       	ldi	r24, 0x01	; 1
    1bb6:	0e 94 d8 05 	call	0xbb0	; 0xbb0 <lcd_print_str>
    1bba:	2f ef       	ldi	r18, 0xFF	; 255
    1bbc:	83 ec       	ldi	r24, 0xC3	; 195
    1bbe:	99 e0       	ldi	r25, 0x09	; 9
    1bc0:	21 50       	subi	r18, 0x01	; 1
    1bc2:	80 40       	sbci	r24, 0x00	; 0
    1bc4:	90 40       	sbci	r25, 0x00	; 0
    1bc6:	e1 f7       	brne	.-8      	; 0x1bc0 <menu_subir_suporte+0x7a>
    1bc8:	00 c0       	rjmp	.+0      	; 0x1bca <menu_subir_suporte+0x84>
    1bca:	00 00       	nop
    1bcc:	c8 cf       	rjmp	.-112    	; 0x1b5e <menu_subir_suporte+0x18>
    1bce:	08 95       	ret

00001bd0 <menu_calibrar_termometro>:
		}
		_delay_ms(200);
	}
	
}
void menu_calibrar_termometro(int index){
    1bd0:	2f 92       	push	r2
    1bd2:	3f 92       	push	r3
    1bd4:	4f 92       	push	r4
    1bd6:	5f 92       	push	r5
    1bd8:	6f 92       	push	r6
    1bda:	7f 92       	push	r7
    1bdc:	8f 92       	push	r8
    1bde:	9f 92       	push	r9
    1be0:	af 92       	push	r10
    1be2:	bf 92       	push	r11
    1be4:	cf 92       	push	r12
    1be6:	df 92       	push	r13
    1be8:	ef 92       	push	r14
    1bea:	ff 92       	push	r15
    1bec:	0f 93       	push	r16
    1bee:	1f 93       	push	r17
    1bf0:	cf 93       	push	r28
    1bf2:	df 93       	push	r29
    1bf4:	cd b7       	in	r28, 0x3d	; 61
    1bf6:	de b7       	in	r29, 0x3e	; 62
    1bf8:	c2 51       	subi	r28, 0x12	; 18
    1bfa:	d1 40       	sbci	r29, 0x01	; 1
    1bfc:	0f b6       	in	r0, 0x3f	; 63
    1bfe:	f8 94       	cli
    1c00:	de bf       	out	0x3e, r29	; 62
    1c02:	0f be       	out	0x3f, r0	; 63
    1c04:	cd bf       	out	0x3d, r28	; 61
    1c06:	2c 01       	movw	r4, r24
	char fim_aquisicao = 0;
	int nrPontos = 0;
	float cal_x[CAL_MAX_PONTOS], cal_y[CAL_MAX_PONTOS];
	lcd_clear();
    1c08:	0e 94 d9 06 	call	0xdb2	; 0xdb2 <lcd_clear>
	lcd_set_mensagem(0,0,15,"Para a calibracao, voce devera manter um termometro o mais proximo possivel do NTC.");
    1c0c:	23 e8       	ldi	r18, 0x83	; 131
    1c0e:	33 e0       	ldi	r19, 0x03	; 3
    1c10:	4f e0       	ldi	r20, 0x0F	; 15
    1c12:	60 e0       	ldi	r22, 0x00	; 0
    1c14:	80 e0       	ldi	r24, 0x00	; 0
    1c16:	0e 94 e8 06 	call	0xdd0	; 0xdd0 <lcd_set_mensagem>
	lcd_print_str(1,0,"Leia e apos \x09");
    1c1a:	47 ed       	ldi	r20, 0xD7	; 215
    1c1c:	53 e0       	ldi	r21, 0x03	; 3
    1c1e:	60 e0       	ldi	r22, 0x00	; 0
    1c20:	81 e0       	ldi	r24, 0x01	; 1
    1c22:	0e 94 d8 05 	call	0xbb0	; 0xbb0 <lcd_print_str>
	if(botoes_ler(50000)!=3)return;
    1c26:	80 e5       	ldi	r24, 0x50	; 80
    1c28:	93 ec       	ldi	r25, 0xC3	; 195
    1c2a:	0e 94 ce 00 	call	0x19c	; 0x19c <botoes_ler>
    1c2e:	83 30       	cpi	r24, 0x03	; 3
    1c30:	09 f0       	breq	.+2      	; 0x1c34 <menu_calibrar_termometro+0x64>
    1c32:	9c c2       	rjmp	.+1336   	; 0x216c <menu_calibrar_termometro+0x59c>
	lcd_set_mensagem(0,0,15,"Entao, para adicionar um ponto de calibracao aperte \x09 e digite a temperatura atual.");
    1c34:	25 ee       	ldi	r18, 0xE5	; 229
    1c36:	33 e0       	ldi	r19, 0x03	; 3
    1c38:	4f e0       	ldi	r20, 0x0F	; 15
    1c3a:	60 e0       	ldi	r22, 0x00	; 0
    1c3c:	80 e0       	ldi	r24, 0x00	; 0
    1c3e:	0e 94 e8 06 	call	0xdd0	; 0xdd0 <lcd_set_mensagem>
	if(botoes_ler(50000)!=3)return;
    1c42:	80 e5       	ldi	r24, 0x50	; 80
    1c44:	93 ec       	ldi	r25, 0xC3	; 195
    1c46:	0e 94 ce 00 	call	0x19c	; 0x19c <botoes_ler>
    1c4a:	83 30       	cpi	r24, 0x03	; 3
    1c4c:	09 f0       	breq	.+2      	; 0x1c50 <menu_calibrar_termometro+0x80>
    1c4e:	8e c2       	rjmp	.+1308   	; 0x216c <menu_calibrar_termometro+0x59c>
	lcd_set_mensagem(0,0,15,"Quando tiver pontos suficientes, aperte \x08 para finalizar");
    1c50:	29 e3       	ldi	r18, 0x39	; 57
    1c52:	34 e0       	ldi	r19, 0x04	; 4
    1c54:	4f e0       	ldi	r20, 0x0F	; 15
    1c56:	60 e0       	ldi	r22, 0x00	; 0
    1c58:	80 e0       	ldi	r24, 0x00	; 0
    1c5a:	0e 94 e8 06 	call	0xdd0	; 0xdd0 <lcd_set_mensagem>
	if(botoes_ler(50000)!=3)return;
    1c5e:	80 e5       	ldi	r24, 0x50	; 80
    1c60:	93 ec       	ldi	r25, 0xC3	; 195
    1c62:	0e 94 ce 00 	call	0x19c	; 0x19c <botoes_ler>
    1c66:	83 30       	cpi	r24, 0x03	; 3
    1c68:	09 f0       	breq	.+2      	; 0x1c6c <menu_calibrar_termometro+0x9c>
    1c6a:	80 c2       	rjmp	.+1280   	; 0x216c <menu_calibrar_termometro+0x59c>
	lcd_set_mensagem(0,0,15,"Para salvar o grupo de pontos na memoria aperte entao \x09. Para descartar \x08.");
    1c6c:	22 e7       	ldi	r18, 0x72	; 114
    1c6e:	34 e0       	ldi	r19, 0x04	; 4
    1c70:	4f e0       	ldi	r20, 0x0F	; 15
    1c72:	60 e0       	ldi	r22, 0x00	; 0
    1c74:	80 e0       	ldi	r24, 0x00	; 0
    1c76:	0e 94 e8 06 	call	0xdd0	; 0xdd0 <lcd_set_mensagem>
	if(botoes_ler(50000)!=3)return;
    1c7a:	80 e5       	ldi	r24, 0x50	; 80
    1c7c:	93 ec       	ldi	r25, 0xC3	; 195
    1c7e:	0e 94 ce 00 	call	0x19c	; 0x19c <botoes_ler>
    1c82:	83 30       	cpi	r24, 0x03	; 3
    1c84:	09 f0       	breq	.+2      	; 0x1c88 <menu_calibrar_termometro+0xb8>
    1c86:	72 c2       	rjmp	.+1252   	; 0x216c <menu_calibrar_termometro+0x59c>
	lcd_clear();
    1c88:	0e 94 d9 06 	call	0xdb2	; 0xdb2 <lcd_clear>
	while(!fim_aquisicao){
		int offset;
		float raw = adc_read(index);
    1c8c:	c4 5f       	subi	r28, 0xF4	; 244
    1c8e:	de 4f       	sbci	r29, 0xFE	; 254
    1c90:	48 82       	st	Y, r4
    1c92:	cc 50       	subi	r28, 0x0C	; 12
    1c94:	d1 40       	sbci	r29, 0x01	; 1
    1c96:	84 2d       	mov	r24, r4
    1c98:	0e 94 53 00 	call	0xa6	; 0xa6 <adc_read>
    1c9c:	bc 01       	movw	r22, r24
    1c9e:	88 27       	eor	r24, r24
    1ca0:	77 fd       	sbrc	r23, 7
    1ca2:	80 95       	com	r24
    1ca4:	98 2f       	mov	r25, r24
    1ca6:	0e 94 e8 14 	call	0x29d0	; 0x29d0 <__floatsisf>
    1caa:	96 2e       	mov	r9, r22
    1cac:	87 2e       	mov	r8, r23
    1cae:	b8 2e       	mov	r11, r24
    1cb0:	a9 2e       	mov	r10, r25
		lcd_print_str(0,0,"Previsao:     \xDF");
    1cb2:	4d eb       	ldi	r20, 0xBD	; 189
    1cb4:	54 e0       	ldi	r21, 0x04	; 4
    1cb6:	60 e0       	ldi	r22, 0x00	; 0
    1cb8:	80 e0       	ldi	r24, 0x00	; 0
    1cba:	0e 94 d8 05 	call	0xbb0	; 0xbb0 <lcd_print_str>
		lcd_print_str(1,0,"\x08fim      add\x09");
    1cbe:	4d ec       	ldi	r20, 0xCD	; 205
    1cc0:	54 e0       	ldi	r21, 0x04	; 4
    1cc2:	60 e0       	ldi	r22, 0x00	; 0
    1cc4:	81 e0       	ldi	r24, 0x01	; 1
    1cc6:	0e 94 d8 05 	call	0xbb0	; 0xbb0 <lcd_print_str>
		LCD_CURSOR[0] = -1;
    1cca:	8f ef       	ldi	r24, 0xFF	; 255
    1ccc:	80 93 55 06 	sts	0x0655, r24
	}
	
}
void menu_calibrar_termometro(int index){
	char fim_aquisicao = 0;
	int nrPontos = 0;
    1cd0:	21 2c       	mov	r2, r1
    1cd2:	31 2c       	mov	r3, r1
		float raw = adc_read(index);
		lcd_print_str(0,0,"Previsao:     \xDF");
		lcd_print_str(1,0,"\x08fim      add\x09");
		LCD_CURSOR[0] = -1;
		float previsao;
		if(nrPontos==0) previsao=25.0;
    1cd4:	e1 2c       	mov	r14, r1
    1cd6:	f1 2c       	mov	r15, r1
    1cd8:	08 ec       	ldi	r16, 0xC8	; 200
    1cda:	11 e4       	ldi	r17, 0x41	; 65
    1cdc:	cf 5e       	subi	r28, 0xEF	; 239
    1cde:	de 4f       	sbci	r29, 0xFE	; 254
    1ce0:	59 82       	std	Y+1, r5	; 0x01
    1ce2:	48 82       	st	Y, r4
    1ce4:	c1 51       	subi	r28, 0x11	; 17
    1ce6:	d1 40       	sbci	r29, 0x01	; 1
    1ce8:	02 c1       	rjmp	.+516    	; 0x1eee <menu_calibrar_termometro+0x31e>
		else if(nrPontos==1) previsao=cal_y[0];
    1cea:	21 e0       	ldi	r18, 0x01	; 1
    1cec:	22 16       	cp	r2, r18
    1cee:	31 04       	cpc	r3, r1
    1cf0:	71 f1       	breq	.+92     	; 0x1d4e <menu_calibrar_termometro+0x17e>
		else{
			for(offset=1;cal_x[offset]<raw && offset<nrPontos-1; offset++);
    1cf2:	4d 80       	ldd	r4, Y+5	; 0x05
    1cf4:	5e 80       	ldd	r5, Y+6	; 0x06
    1cf6:	6f 80       	ldd	r6, Y+7	; 0x07
    1cf8:	78 84       	ldd	r7, Y+8	; 0x08
    1cfa:	a3 01       	movw	r20, r6
    1cfc:	92 01       	movw	r18, r4
    1cfe:	cf 5f       	subi	r28, 0xFF	; 255
    1d00:	de 4f       	sbci	r29, 0xFE	; 254
    1d02:	b8 81       	ld	r27, Y
    1d04:	c1 50       	subi	r28, 0x01	; 1
    1d06:	d1 40       	sbci	r29, 0x01	; 1
    1d08:	cb 5f       	subi	r28, 0xFB	; 251
    1d0a:	de 4f       	sbci	r29, 0xFE	; 254
    1d0c:	a8 81       	ld	r26, Y
    1d0e:	c5 50       	subi	r28, 0x05	; 5
    1d10:	d1 40       	sbci	r29, 0x01	; 1
    1d12:	ca 5f       	subi	r28, 0xFA	; 250
    1d14:	de 4f       	sbci	r29, 0xFE	; 254
    1d16:	f8 81       	ld	r31, Y
    1d18:	c6 50       	subi	r28, 0x06	; 6
    1d1a:	d1 40       	sbci	r29, 0x01	; 1
    1d1c:	c9 5f       	subi	r28, 0xF9	; 249
    1d1e:	de 4f       	sbci	r29, 0xFE	; 254
    1d20:	e8 81       	ld	r30, Y
    1d22:	c7 50       	subi	r28, 0x07	; 7
    1d24:	d1 40       	sbci	r29, 0x01	; 1
    1d26:	6b 2f       	mov	r22, r27
    1d28:	7a 2f       	mov	r23, r26
    1d2a:	8f 2f       	mov	r24, r31
    1d2c:	9e 2f       	mov	r25, r30
    1d2e:	0e 94 98 15 	call	0x2b30	; 0x2b30 <__gesf2>
    1d32:	18 16       	cp	r1, r24
    1d34:	0c f0       	brlt	.+2      	; 0x1d38 <menu_calibrar_termometro+0x168>
    1d36:	3f c0       	rjmp	.+126    	; 0x1db6 <menu_calibrar_termometro+0x1e6>
    1d38:	71 01       	movw	r14, r2
    1d3a:	31 e0       	ldi	r19, 0x01	; 1
    1d3c:	e3 1a       	sub	r14, r19
    1d3e:	f1 08       	sbc	r15, r1
    1d40:	82 e0       	ldi	r24, 0x02	; 2
    1d42:	e8 16       	cp	r14, r24
    1d44:	f1 04       	cpc	r15, r1
    1d46:	c4 f4       	brge	.+48     	; 0x1d78 <menu_calibrar_termometro+0x1a8>
    1d48:	01 e0       	ldi	r16, 0x01	; 1
    1d4a:	10 e0       	ldi	r17, 0x00	; 0
    1d4c:	36 c0       	rjmp	.+108    	; 0x1dba <menu_calibrar_termometro+0x1ea>
		lcd_print_str(0,0,"Previsao:     \xDF");
		lcd_print_str(1,0,"\x08fim      add\x09");
		LCD_CURSOR[0] = -1;
		float previsao;
		if(nrPontos==0) previsao=25.0;
		else if(nrPontos==1) previsao=cal_y[0];
    1d4e:	cf 57       	subi	r28, 0x7F	; 127
    1d50:	df 4f       	sbci	r29, 0xFF	; 255
    1d52:	e8 80       	ld	r14, Y
    1d54:	c1 58       	subi	r28, 0x81	; 129
    1d56:	d0 40       	sbci	r29, 0x00	; 0
    1d58:	ce 57       	subi	r28, 0x7E	; 126
    1d5a:	df 4f       	sbci	r29, 0xFF	; 255
    1d5c:	f8 80       	ld	r15, Y
    1d5e:	c2 58       	subi	r28, 0x82	; 130
    1d60:	d0 40       	sbci	r29, 0x00	; 0
    1d62:	cd 57       	subi	r28, 0x7D	; 125
    1d64:	df 4f       	sbci	r29, 0xFF	; 255
    1d66:	08 81       	ld	r16, Y
    1d68:	c3 58       	subi	r28, 0x83	; 131
    1d6a:	d0 40       	sbci	r29, 0x00	; 0
    1d6c:	cc 57       	subi	r28, 0x7C	; 124
    1d6e:	df 4f       	sbci	r29, 0xFF	; 255
    1d70:	18 81       	ld	r17, Y
    1d72:	c4 58       	subi	r28, 0x84	; 132
    1d74:	d0 40       	sbci	r29, 0x00	; 0
    1d76:	bb c0       	rjmp	.+374    	; 0x1eee <menu_calibrar_termometro+0x31e>
    1d78:	0f 2e       	mov	r0, r31
    1d7a:	f9 e0       	ldi	r31, 0x09	; 9
    1d7c:	cf 2e       	mov	r12, r31
    1d7e:	d1 2c       	mov	r13, r1
    1d80:	f0 2d       	mov	r31, r0
    1d82:	cc 0e       	add	r12, r28
    1d84:	dd 1e       	adc	r13, r29
		else{
			for(offset=1;cal_x[offset]<raw && offset<nrPontos-1; offset++);
    1d86:	01 e0       	ldi	r16, 0x01	; 1
    1d88:	10 e0       	ldi	r17, 0x00	; 0
    1d8a:	0f 5f       	subi	r16, 0xFF	; 255
    1d8c:	1f 4f       	sbci	r17, 0xFF	; 255
    1d8e:	d6 01       	movw	r26, r12
    1d90:	4d 90       	ld	r4, X+
    1d92:	5d 90       	ld	r5, X+
    1d94:	6d 90       	ld	r6, X+
    1d96:	7d 90       	ld	r7, X+
    1d98:	6d 01       	movw	r12, r26
    1d9a:	a3 01       	movw	r20, r6
    1d9c:	92 01       	movw	r18, r4
    1d9e:	69 2d       	mov	r22, r9
    1da0:	78 2d       	mov	r23, r8
    1da2:	8b 2d       	mov	r24, r11
    1da4:	9a 2d       	mov	r25, r10
    1da6:	0e 94 98 15 	call	0x2b30	; 0x2b30 <__gesf2>
    1daa:	18 16       	cp	r1, r24
    1dac:	34 f4       	brge	.+12     	; 0x1dba <menu_calibrar_termometro+0x1ea>
    1dae:	0e 15       	cp	r16, r14
    1db0:	1f 05       	cpc	r17, r15
    1db2:	59 f7       	brne	.-42     	; 0x1d8a <menu_calibrar_termometro+0x1ba>
    1db4:	02 c0       	rjmp	.+4      	; 0x1dba <menu_calibrar_termometro+0x1ea>
    1db6:	01 e0       	ldi	r16, 0x01	; 1
    1db8:	10 e0       	ldi	r17, 0x00	; 0
			previsao = cal_y[offset-1]+(cal_y[offset]-cal_y[offset-1])*(raw-cal_x[offset-1])/(cal_x[offset]-cal_x[offset-1]);
    1dba:	c8 01       	movw	r24, r16
    1dbc:	01 97       	sbiw	r24, 0x01	; 1
    1dbe:	88 0f       	add	r24, r24
    1dc0:	99 1f       	adc	r25, r25
    1dc2:	88 0f       	add	r24, r24
    1dc4:	99 1f       	adc	r25, r25
    1dc6:	e1 e8       	ldi	r30, 0x81	; 129
    1dc8:	f0 e0       	ldi	r31, 0x00	; 0
    1dca:	ec 0f       	add	r30, r28
    1dcc:	fd 1f       	adc	r31, r29
    1dce:	e8 0f       	add	r30, r24
    1dd0:	f9 1f       	adc	r31, r25
    1dd2:	c0 80       	ld	r12, Z
    1dd4:	d1 80       	ldd	r13, Z+1	; 0x01
    1dd6:	e2 80       	ldd	r14, Z+2	; 0x02
    1dd8:	f3 80       	ldd	r15, Z+3	; 0x03
    1dda:	e1 e0       	ldi	r30, 0x01	; 1
    1ddc:	f0 e0       	ldi	r31, 0x00	; 0
    1dde:	ec 0f       	add	r30, r28
    1de0:	fd 1f       	adc	r31, r29
    1de2:	e8 0f       	add	r30, r24
    1de4:	f9 1f       	adc	r31, r25
    1de6:	80 81       	ld	r24, Z
    1de8:	91 81       	ldd	r25, Z+1	; 0x01
    1dea:	a2 81       	ldd	r26, Z+2	; 0x02
    1dec:	b3 81       	ldd	r27, Z+3	; 0x03
    1dee:	c8 5f       	subi	r28, 0xF8	; 248
    1df0:	de 4f       	sbci	r29, 0xFE	; 254
    1df2:	88 83       	st	Y, r24
    1df4:	99 83       	std	Y+1, r25	; 0x01
    1df6:	aa 83       	std	Y+2, r26	; 0x02
    1df8:	bb 83       	std	Y+3, r27	; 0x03
    1dfa:	c8 50       	subi	r28, 0x08	; 8
    1dfc:	d1 40       	sbci	r29, 0x01	; 1
    1dfe:	f8 01       	movw	r30, r16
    1e00:	ee 0f       	add	r30, r30
    1e02:	ff 1f       	adc	r31, r31
    1e04:	ee 0f       	add	r30, r30
    1e06:	ff 1f       	adc	r31, r31
    1e08:	a1 e8       	ldi	r26, 0x81	; 129
    1e0a:	b0 e0       	ldi	r27, 0x00	; 0
    1e0c:	ac 0f       	add	r26, r28
    1e0e:	bd 1f       	adc	r27, r29
    1e10:	ea 0f       	add	r30, r26
    1e12:	fb 1f       	adc	r31, r27
    1e14:	a7 01       	movw	r20, r14
    1e16:	96 01       	movw	r18, r12
    1e18:	60 81       	ld	r22, Z
    1e1a:	71 81       	ldd	r23, Z+1	; 0x01
    1e1c:	82 81       	ldd	r24, Z+2	; 0x02
    1e1e:	93 81       	ldd	r25, Z+3	; 0x03
    1e20:	0e 94 e4 13 	call	0x27c8	; 0x27c8 <__subsf3>
    1e24:	c3 5f       	subi	r28, 0xF3	; 243
    1e26:	de 4f       	sbci	r29, 0xFE	; 254
    1e28:	68 83       	st	Y, r22
    1e2a:	79 83       	std	Y+1, r23	; 0x01
    1e2c:	8a 83       	std	Y+2, r24	; 0x02
    1e2e:	9b 83       	std	Y+3, r25	; 0x03
    1e30:	cd 50       	subi	r28, 0x0D	; 13
    1e32:	d1 40       	sbci	r29, 0x01	; 1
    1e34:	c8 5f       	subi	r28, 0xF8	; 248
    1e36:	de 4f       	sbci	r29, 0xFE	; 254
    1e38:	28 81       	ld	r18, Y
    1e3a:	39 81       	ldd	r19, Y+1	; 0x01
    1e3c:	4a 81       	ldd	r20, Y+2	; 0x02
    1e3e:	5b 81       	ldd	r21, Y+3	; 0x03
    1e40:	c8 50       	subi	r28, 0x08	; 8
    1e42:	d1 40       	sbci	r29, 0x01	; 1
    1e44:	cf 5f       	subi	r28, 0xFF	; 255
    1e46:	de 4f       	sbci	r29, 0xFE	; 254
    1e48:	b8 81       	ld	r27, Y
    1e4a:	c1 50       	subi	r28, 0x01	; 1
    1e4c:	d1 40       	sbci	r29, 0x01	; 1
    1e4e:	cb 5f       	subi	r28, 0xFB	; 251
    1e50:	de 4f       	sbci	r29, 0xFE	; 254
    1e52:	a8 81       	ld	r26, Y
    1e54:	c5 50       	subi	r28, 0x05	; 5
    1e56:	d1 40       	sbci	r29, 0x01	; 1
    1e58:	ca 5f       	subi	r28, 0xFA	; 250
    1e5a:	de 4f       	sbci	r29, 0xFE	; 254
    1e5c:	f8 81       	ld	r31, Y
    1e5e:	c6 50       	subi	r28, 0x06	; 6
    1e60:	d1 40       	sbci	r29, 0x01	; 1
    1e62:	c9 5f       	subi	r28, 0xF9	; 249
    1e64:	de 4f       	sbci	r29, 0xFE	; 254
    1e66:	e8 81       	ld	r30, Y
    1e68:	c7 50       	subi	r28, 0x07	; 7
    1e6a:	d1 40       	sbci	r29, 0x01	; 1
    1e6c:	6b 2f       	mov	r22, r27
    1e6e:	7a 2f       	mov	r23, r26
    1e70:	8f 2f       	mov	r24, r31
    1e72:	9e 2f       	mov	r25, r30
    1e74:	0e 94 e4 13 	call	0x27c8	; 0x27c8 <__subsf3>
    1e78:	9b 01       	movw	r18, r22
    1e7a:	ac 01       	movw	r20, r24
    1e7c:	c3 5f       	subi	r28, 0xF3	; 243
    1e7e:	de 4f       	sbci	r29, 0xFE	; 254
    1e80:	68 81       	ld	r22, Y
    1e82:	79 81       	ldd	r23, Y+1	; 0x01
    1e84:	8a 81       	ldd	r24, Y+2	; 0x02
    1e86:	9b 81       	ldd	r25, Y+3	; 0x03
    1e88:	cd 50       	subi	r28, 0x0D	; 13
    1e8a:	d1 40       	sbci	r29, 0x01	; 1
    1e8c:	0e 94 9c 15 	call	0x2b38	; 0x2b38 <__mulsf3>
    1e90:	cf 5f       	subi	r28, 0xFF	; 255
    1e92:	de 4f       	sbci	r29, 0xFE	; 254
    1e94:	68 83       	st	Y, r22
    1e96:	79 83       	std	Y+1, r23	; 0x01
    1e98:	8a 83       	std	Y+2, r24	; 0x02
    1e9a:	9b 83       	std	Y+3, r25	; 0x03
    1e9c:	c1 50       	subi	r28, 0x01	; 1
    1e9e:	d1 40       	sbci	r29, 0x01	; 1
    1ea0:	c8 5f       	subi	r28, 0xF8	; 248
    1ea2:	de 4f       	sbci	r29, 0xFE	; 254
    1ea4:	28 81       	ld	r18, Y
    1ea6:	39 81       	ldd	r19, Y+1	; 0x01
    1ea8:	4a 81       	ldd	r20, Y+2	; 0x02
    1eaa:	5b 81       	ldd	r21, Y+3	; 0x03
    1eac:	c8 50       	subi	r28, 0x08	; 8
    1eae:	d1 40       	sbci	r29, 0x01	; 1
    1eb0:	c3 01       	movw	r24, r6
    1eb2:	b2 01       	movw	r22, r4
    1eb4:	0e 94 e4 13 	call	0x27c8	; 0x27c8 <__subsf3>
    1eb8:	9b 01       	movw	r18, r22
    1eba:	ac 01       	movw	r20, r24
    1ebc:	cf 5f       	subi	r28, 0xFF	; 255
    1ebe:	de 4f       	sbci	r29, 0xFE	; 254
    1ec0:	68 81       	ld	r22, Y
    1ec2:	79 81       	ldd	r23, Y+1	; 0x01
    1ec4:	8a 81       	ldd	r24, Y+2	; 0x02
    1ec6:	9b 81       	ldd	r25, Y+3	; 0x03
    1ec8:	c1 50       	subi	r28, 0x01	; 1
    1eca:	d1 40       	sbci	r29, 0x01	; 1
    1ecc:	0e 94 4d 14 	call	0x289a	; 0x289a <__divsf3>
    1ed0:	9b 01       	movw	r18, r22
    1ed2:	ac 01       	movw	r20, r24
    1ed4:	c7 01       	movw	r24, r14
    1ed6:	b6 01       	movw	r22, r12
    1ed8:	0e 94 e5 13 	call	0x27ca	; 0x27ca <__addsf3>
    1edc:	e6 2e       	mov	r14, r22
    1ede:	f7 2e       	mov	r15, r23
    1ee0:	08 2f       	mov	r16, r24
    1ee2:	19 2f       	mov	r17, r25
    1ee4:	04 c0       	rjmp	.+8      	; 0x1eee <menu_calibrar_termometro+0x31e>
		float raw = adc_read(index);
		lcd_print_str(0,0,"Previsao:     \xDF");
		lcd_print_str(1,0,"\x08fim      add\x09");
		LCD_CURSOR[0] = -1;
		float previsao;
		if(nrPontos==0) previsao=25.0;
    1ee6:	e1 2c       	mov	r14, r1
    1ee8:	f1 2c       	mov	r15, r1
    1eea:	08 ec       	ldi	r16, 0xC8	; 200
    1eec:	11 e4       	ldi	r17, 0x41	; 65
		else if(nrPontos==1) previsao=cal_y[0];
		else{
			for(offset=1;cal_x[offset]<raw && offset<nrPontos-1; offset++);
			previsao = cal_y[offset-1]+(cal_y[offset]-cal_y[offset-1])*(raw-cal_x[offset-1])/(cal_x[offset]-cal_x[offset-1]);
		}
		lcd_print_float_31(0,9,previsao);
    1eee:	2e 2d       	mov	r18, r14
    1ef0:	3f 2d       	mov	r19, r15
    1ef2:	40 2f       	mov	r20, r16
    1ef4:	51 2f       	mov	r21, r17
    1ef6:	69 e0       	ldi	r22, 0x09	; 9
    1ef8:	80 e0       	ldi	r24, 0x00	; 0
    1efa:	0e 94 4e 06 	call	0xc9c	; 0xc9c <lcd_print_float_31>
		switch(botoes_ler(1000)){
    1efe:	88 ee       	ldi	r24, 0xE8	; 232
    1f00:	93 e0       	ldi	r25, 0x03	; 3
    1f02:	0e 94 ce 00 	call	0x19c	; 0x19c <botoes_ler>
    1f06:	83 30       	cpi	r24, 0x03	; 3
    1f08:	21 f0       	breq	.+8      	; 0x1f12 <menu_calibrar_termometro+0x342>
    1f0a:	84 30       	cpi	r24, 0x04	; 4
    1f0c:	09 f0       	breq	.+2      	; 0x1f10 <menu_calibrar_termometro+0x340>
    1f0e:	9c c0       	rjmp	.+312    	; 0x2048 <menu_calibrar_termometro+0x478>
    1f10:	d6 c0       	rjmp	.+428    	; 0x20be <menu_calibrar_termometro+0x4ee>
			case 4:	fim_aquisicao = 1; break;
			case 3:
				lcd_print_str(0,0,"\x0A\x0B\x08\x09 p/ editar ");
    1f12:	4b ed       	ldi	r20, 0xDB	; 219
    1f14:	54 e0       	ldi	r21, 0x04	; 4
    1f16:	60 e0       	ldi	r22, 0x00	; 0
    1f18:	80 e0       	ldi	r24, 0x00	; 0
    1f1a:	0e 94 d8 05 	call	0xbb0	; 0xbb0 <lcd_print_str>
				lcd_print_str(1,0,"            \xDFC ");
    1f1e:	4b ee       	ldi	r20, 0xEB	; 235
    1f20:	54 e0       	ldi	r21, 0x04	; 4
    1f22:	60 e0       	ldi	r22, 0x00	; 0
    1f24:	81 e0       	ldi	r24, 0x01	; 1
    1f26:	0e 94 d8 05 	call	0xbb0	; 0xbb0 <lcd_print_str>
				previsao = ler_float(1,2,previsao);
    1f2a:	2e 2d       	mov	r18, r14
    1f2c:	3f 2d       	mov	r19, r15
    1f2e:	40 2f       	mov	r20, r16
    1f30:	51 2f       	mov	r21, r17
    1f32:	62 e0       	ldi	r22, 0x02	; 2
    1f34:	81 e0       	ldi	r24, 0x01	; 1
    1f36:	0e 94 dd 07 	call	0xfba	; 0xfba <ler_float>
    1f3a:	6b 01       	movw	r12, r22
    1f3c:	7c 01       	movw	r14, r24
				if(previsao>-100){
    1f3e:	20 e0       	ldi	r18, 0x00	; 0
    1f40:	30 e0       	ldi	r19, 0x00	; 0
    1f42:	48 ec       	ldi	r20, 0xC8	; 200
    1f44:	52 ec       	ldi	r21, 0xC2	; 194
    1f46:	0e 94 98 15 	call	0x2b30	; 0x2b30 <__gesf2>
    1f4a:	18 16       	cp	r1, r24
    1f4c:	0c f0       	brlt	.+2      	; 0x1f50 <menu_calibrar_termometro+0x380>
    1f4e:	7c c0       	rjmp	.+248    	; 0x2048 <menu_calibrar_termometro+0x478>
					for(offset=0;cal_x[offset]<raw && offset<nrPontos; offset++);
    1f50:	29 2d       	mov	r18, r9
    1f52:	38 2d       	mov	r19, r8
    1f54:	4b 2d       	mov	r20, r11
    1f56:	5a 2d       	mov	r21, r10
    1f58:	69 81       	ldd	r22, Y+1	; 0x01
    1f5a:	7a 81       	ldd	r23, Y+2	; 0x02
    1f5c:	8b 81       	ldd	r24, Y+3	; 0x03
    1f5e:	9c 81       	ldd	r25, Y+4	; 0x04
    1f60:	0e 94 49 14 	call	0x2892	; 0x2892 <__cmpsf2>
    1f64:	88 23       	and	r24, r24
    1f66:	04 f5       	brge	.+64     	; 0x1fa8 <menu_calibrar_termometro+0x3d8>
    1f68:	12 14       	cp	r1, r2
    1f6a:	13 04       	cpc	r1, r3
    1f6c:	04 f5       	brge	.+64     	; 0x1fae <menu_calibrar_termometro+0x3de>
    1f6e:	0f 2e       	mov	r0, r31
    1f70:	f5 e0       	ldi	r31, 0x05	; 5
    1f72:	6f 2e       	mov	r6, r31
    1f74:	71 2c       	mov	r7, r1
    1f76:	f0 2d       	mov	r31, r0
    1f78:	6c 0e       	add	r6, r28
    1f7a:	7d 1e       	adc	r7, r29
    1f7c:	00 e0       	ldi	r16, 0x00	; 0
    1f7e:	10 e0       	ldi	r17, 0x00	; 0
    1f80:	0f 5f       	subi	r16, 0xFF	; 255
    1f82:	1f 4f       	sbci	r17, 0xFF	; 255
    1f84:	f3 01       	movw	r30, r6
    1f86:	61 91       	ld	r22, Z+
    1f88:	71 91       	ld	r23, Z+
    1f8a:	81 91       	ld	r24, Z+
    1f8c:	91 91       	ld	r25, Z+
    1f8e:	3f 01       	movw	r6, r30
    1f90:	29 2d       	mov	r18, r9
    1f92:	38 2d       	mov	r19, r8
    1f94:	4b 2d       	mov	r20, r11
    1f96:	5a 2d       	mov	r21, r10
    1f98:	0e 94 49 14 	call	0x2892	; 0x2892 <__cmpsf2>
    1f9c:	88 23       	and	r24, r24
    1f9e:	4c f4       	brge	.+18     	; 0x1fb2 <menu_calibrar_termometro+0x3e2>
    1fa0:	02 15       	cp	r16, r2
    1fa2:	13 05       	cpc	r17, r3
    1fa4:	69 f7       	brne	.-38     	; 0x1f80 <menu_calibrar_termometro+0x3b0>
    1fa6:	05 c0       	rjmp	.+10     	; 0x1fb2 <menu_calibrar_termometro+0x3e2>
    1fa8:	00 e0       	ldi	r16, 0x00	; 0
    1faa:	10 e0       	ldi	r17, 0x00	; 0
    1fac:	02 c0       	rjmp	.+4      	; 0x1fb2 <menu_calibrar_termometro+0x3e2>
    1fae:	00 e0       	ldi	r16, 0x00	; 0
    1fb0:	10 e0       	ldi	r17, 0x00	; 0
					for(int k=nrPontos-1;k>=offset;k--){
    1fb2:	c1 01       	movw	r24, r2
    1fb4:	01 97       	sbiw	r24, 0x01	; 1
    1fb6:	80 17       	cp	r24, r16
    1fb8:	91 07       	cpc	r25, r17
    1fba:	3c f1       	brlt	.+78     	; 0x200a <menu_calibrar_termometro+0x43a>
		}
		_delay_ms(200);
	}
	
}
void menu_calibrar_termometro(int index){
    1fbc:	f1 01       	movw	r30, r2
    1fbe:	ee 0f       	add	r30, r30
    1fc0:	ff 1f       	adc	r31, r31
    1fc2:	ee 0f       	add	r30, r30
    1fc4:	ff 1f       	adc	r31, r31
    1fc6:	a1 e0       	ldi	r26, 0x01	; 1
    1fc8:	b0 e0       	ldi	r27, 0x00	; 0
    1fca:	ac 0f       	add	r26, r28
    1fcc:	bd 1f       	adc	r27, r29
    1fce:	ae 0f       	add	r26, r30
    1fd0:	bf 1f       	adc	r27, r31
    1fd2:	21 e8       	ldi	r18, 0x81	; 129
    1fd4:	30 e0       	ldi	r19, 0x00	; 0
    1fd6:	2c 0f       	add	r18, r28
    1fd8:	3d 1f       	adc	r19, r29
    1fda:	e2 0f       	add	r30, r18
    1fdc:	f3 1f       	adc	r31, r19
				lcd_print_str(1,0,"            \xDFC ");
				previsao = ler_float(1,2,previsao);
				if(previsao>-100){
					for(offset=0;cal_x[offset]<raw && offset<nrPontos; offset++);
					for(int k=nrPontos-1;k>=offset;k--){
						cal_x[k+1] = cal_x[k];
    1fde:	7e 91       	ld	r23, -X
    1fe0:	6e 91       	ld	r22, -X
    1fe2:	5e 91       	ld	r21, -X
    1fe4:	4e 91       	ld	r20, -X
    1fe6:	14 96       	adiw	r26, 0x04	; 4
    1fe8:	4d 93       	st	X+, r20
    1fea:	5d 93       	st	X+, r21
    1fec:	6d 93       	st	X+, r22
    1fee:	7c 93       	st	X, r23
    1ff0:	17 97       	sbiw	r26, 0x07	; 7
						cal_y[k+1] = cal_y[k];
    1ff2:	72 91       	ld	r23, -Z
    1ff4:	62 91       	ld	r22, -Z
    1ff6:	52 91       	ld	r21, -Z
    1ff8:	42 91       	ld	r20, -Z
    1ffa:	44 83       	std	Z+4, r20	; 0x04
    1ffc:	55 83       	std	Z+5, r21	; 0x05
    1ffe:	66 83       	std	Z+6, r22	; 0x06
    2000:	77 83       	std	Z+7, r23	; 0x07
				lcd_print_str(0,0,"\x0A\x0B\x08\x09 p/ editar ");
				lcd_print_str(1,0,"            \xDFC ");
				previsao = ler_float(1,2,previsao);
				if(previsao>-100){
					for(offset=0;cal_x[offset]<raw && offset<nrPontos; offset++);
					for(int k=nrPontos-1;k>=offset;k--){
    2002:	01 97       	sbiw	r24, 0x01	; 1
    2004:	80 17       	cp	r24, r16
    2006:	91 07       	cpc	r25, r17
    2008:	54 f7       	brge	.-44     	; 0x1fde <menu_calibrar_termometro+0x40e>
						cal_x[k+1] = cal_x[k];
						cal_y[k+1] = cal_y[k];
					}
					cal_x[offset] = raw;
    200a:	00 0f       	add	r16, r16
    200c:	11 1f       	adc	r17, r17
    200e:	00 0f       	add	r16, r16
    2010:	11 1f       	adc	r17, r17
    2012:	e1 e0       	ldi	r30, 0x01	; 1
    2014:	f0 e0       	ldi	r31, 0x00	; 0
    2016:	ec 0f       	add	r30, r28
    2018:	fd 1f       	adc	r31, r29
    201a:	e0 0f       	add	r30, r16
    201c:	f1 1f       	adc	r31, r17
    201e:	89 2d       	mov	r24, r9
    2020:	98 2d       	mov	r25, r8
    2022:	ab 2d       	mov	r26, r11
    2024:	ba 2d       	mov	r27, r10
    2026:	80 83       	st	Z, r24
    2028:	91 83       	std	Z+1, r25	; 0x01
    202a:	a2 83       	std	Z+2, r26	; 0x02
    202c:	b3 83       	std	Z+3, r27	; 0x03
					cal_y[offset] = previsao;
    202e:	e1 e8       	ldi	r30, 0x81	; 129
    2030:	f0 e0       	ldi	r31, 0x00	; 0
    2032:	ec 0f       	add	r30, r28
    2034:	fd 1f       	adc	r31, r29
    2036:	e0 0f       	add	r30, r16
    2038:	f1 1f       	adc	r31, r17
    203a:	c0 82       	st	Z, r12
    203c:	d1 82       	std	Z+1, r13	; 0x01
    203e:	e2 82       	std	Z+2, r14	; 0x02
    2040:	f3 82       	std	Z+3, r15	; 0x03
					nrPontos++;
    2042:	3f ef       	ldi	r19, 0xFF	; 255
    2044:	23 1a       	sub	r2, r19
    2046:	33 0a       	sbc	r3, r19
	lcd_set_mensagem(0,0,15,"Para salvar o grupo de pontos na memoria aperte entao \x09. Para descartar \x08.");
	if(botoes_ler(50000)!=3)return;
	lcd_clear();
	while(!fim_aquisicao){
		int offset;
		float raw = adc_read(index);
    2048:	c4 5f       	subi	r28, 0xF4	; 244
    204a:	de 4f       	sbci	r29, 0xFE	; 254
    204c:	88 81       	ld	r24, Y
    204e:	cc 50       	subi	r28, 0x0C	; 12
    2050:	d1 40       	sbci	r29, 0x01	; 1
    2052:	0e 94 53 00 	call	0xa6	; 0xa6 <adc_read>
    2056:	bc 01       	movw	r22, r24
    2058:	88 27       	eor	r24, r24
    205a:	77 fd       	sbrc	r23, 7
    205c:	80 95       	com	r24
    205e:	98 2f       	mov	r25, r24
    2060:	0e 94 e8 14 	call	0x29d0	; 0x29d0 <__floatsisf>
    2064:	cf 5f       	subi	r28, 0xFF	; 255
    2066:	de 4f       	sbci	r29, 0xFE	; 254
    2068:	68 83       	st	Y, r22
    206a:	c1 50       	subi	r28, 0x01	; 1
    206c:	d1 40       	sbci	r29, 0x01	; 1
    206e:	cb 5f       	subi	r28, 0xFB	; 251
    2070:	de 4f       	sbci	r29, 0xFE	; 254
    2072:	78 83       	st	Y, r23
    2074:	c5 50       	subi	r28, 0x05	; 5
    2076:	d1 40       	sbci	r29, 0x01	; 1
    2078:	ca 5f       	subi	r28, 0xFA	; 250
    207a:	de 4f       	sbci	r29, 0xFE	; 254
    207c:	88 83       	st	Y, r24
    207e:	c6 50       	subi	r28, 0x06	; 6
    2080:	d1 40       	sbci	r29, 0x01	; 1
    2082:	c9 5f       	subi	r28, 0xF9	; 249
    2084:	de 4f       	sbci	r29, 0xFE	; 254
    2086:	98 83       	st	Y, r25
    2088:	c7 50       	subi	r28, 0x07	; 7
    208a:	d1 40       	sbci	r29, 0x01	; 1
    208c:	96 2e       	mov	r9, r22
    208e:	87 2e       	mov	r8, r23
    2090:	b8 2e       	mov	r11, r24
    2092:	a9 2e       	mov	r10, r25
		lcd_print_str(0,0,"Previsao:     \xDF");
    2094:	4d eb       	ldi	r20, 0xBD	; 189
    2096:	54 e0       	ldi	r21, 0x04	; 4
    2098:	60 e0       	ldi	r22, 0x00	; 0
    209a:	80 e0       	ldi	r24, 0x00	; 0
    209c:	0e 94 d8 05 	call	0xbb0	; 0xbb0 <lcd_print_str>
		lcd_print_str(1,0,"\x08fim      add\x09");
    20a0:	4d ec       	ldi	r20, 0xCD	; 205
    20a2:	54 e0       	ldi	r21, 0x04	; 4
    20a4:	60 e0       	ldi	r22, 0x00	; 0
    20a6:	81 e0       	ldi	r24, 0x01	; 1
    20a8:	0e 94 d8 05 	call	0xbb0	; 0xbb0 <lcd_print_str>
		LCD_CURSOR[0] = -1;
    20ac:	ef ef       	ldi	r30, 0xFF	; 255
    20ae:	a5 e5       	ldi	r26, 0x55	; 85
    20b0:	b6 e0       	ldi	r27, 0x06	; 6
    20b2:	ec 93       	st	X, r30
		float previsao;
		if(nrPontos==0) previsao=25.0;
    20b4:	21 14       	cp	r2, r1
    20b6:	31 04       	cpc	r3, r1
    20b8:	09 f0       	breq	.+2      	; 0x20bc <menu_calibrar_termometro+0x4ec>
    20ba:	17 ce       	rjmp	.-978    	; 0x1cea <menu_calibrar_termometro+0x11a>
    20bc:	14 cf       	rjmp	.-472    	; 0x1ee6 <menu_calibrar_termometro+0x316>
    20be:	cf 5e       	subi	r28, 0xEF	; 239
    20c0:	de 4f       	sbci	r29, 0xFE	; 254
    20c2:	48 80       	ld	r4, Y
    20c4:	59 80       	ldd	r5, Y+1	; 0x01
    20c6:	c1 51       	subi	r28, 0x11	; 17
    20c8:	d1 40       	sbci	r29, 0x01	; 1
					cal_y[offset] = previsao;
					nrPontos++;
				}
		}
	}
	lcd_print_str(0,0,"Salvar     pts?");
    20ca:	4a ef       	ldi	r20, 0xFA	; 250
    20cc:	54 e0       	ldi	r21, 0x04	; 4
    20ce:	60 e0       	ldi	r22, 0x00	; 0
    20d0:	80 e0       	ldi	r24, 0x00	; 0
    20d2:	0e 94 d8 05 	call	0xbb0	; 0xbb0 <lcd_print_str>
	lcd_print_str(1,0,"\x08nao      sim\x09 ");
    20d6:	4a e0       	ldi	r20, 0x0A	; 10
    20d8:	55 e0       	ldi	r21, 0x05	; 5
    20da:	60 e0       	ldi	r22, 0x00	; 0
    20dc:	81 e0       	ldi	r24, 0x01	; 1
    20de:	0e 94 d8 05 	call	0xbb0	; 0xbb0 <lcd_print_str>
	lcd_print_int(0,7,nrPontos);
    20e2:	a1 01       	movw	r20, r2
    20e4:	67 e0       	ldi	r22, 0x07	; 7
    20e6:	80 e0       	ldi	r24, 0x00	; 0
    20e8:	0e 94 f0 05 	call	0xbe0	; 0xbe0 <lcd_print_int>
	if(botoes_ler(30000)==3){
    20ec:	80 e3       	ldi	r24, 0x30	; 48
    20ee:	95 e7       	ldi	r25, 0x75	; 117
    20f0:	0e 94 ce 00 	call	0x19c	; 0x19c <botoes_ler>
    20f4:	83 30       	cpi	r24, 0x03	; 3
    20f6:	d1 f5       	brne	.+116    	; 0x216c <menu_calibrar_termometro+0x59c>
		eeprom_write_word(CAL_TAMANHO[index],nrPontos);
    20f8:	82 01       	movw	r16, r4
    20fa:	00 0f       	add	r16, r16
    20fc:	11 1f       	adc	r17, r17
    20fe:	f8 01       	movw	r30, r16
    2100:	e4 5f       	subi	r30, 0xF4	; 244
    2102:	fe 4f       	sbci	r31, 0xFE	; 254
    2104:	b1 01       	movw	r22, r2
    2106:	80 81       	ld	r24, Z
    2108:	91 81       	ldd	r25, Z+1	; 0x01
    210a:	0e 94 91 16 	call	0x2d22	; 0x2d22 <__eewr_word_m328p>
		eeprom_write_block(cal_x,CAL_VAL_X[index],sizeof(float)*nrPontos);
    210e:	71 01       	movw	r14, r2
    2110:	ee 0c       	add	r14, r14
    2112:	ff 1c       	adc	r15, r15
    2114:	ee 0c       	add	r14, r14
    2116:	ff 1c       	adc	r15, r15
    2118:	f8 01       	movw	r30, r16
    211a:	e8 5f       	subi	r30, 0xF8	; 248
    211c:	fe 4f       	sbci	r31, 0xFE	; 254
    211e:	60 81       	ld	r22, Z
    2120:	71 81       	ldd	r23, Z+1	; 0x01
    2122:	a7 01       	movw	r20, r14
    2124:	ce 01       	movw	r24, r28
    2126:	01 96       	adiw	r24, 0x01	; 1
    2128:	0e 94 71 16 	call	0x2ce2	; 0x2ce2 <__eewr_block_m328p>
		eeprom_write_block(cal_y,CAL_VAL_Y[index],sizeof(float)*nrPontos);
    212c:	f8 01       	movw	r30, r16
    212e:	ec 5f       	subi	r30, 0xFC	; 252
    2130:	fe 4f       	sbci	r31, 0xFE	; 254
    2132:	60 81       	ld	r22, Z
    2134:	71 81       	ldd	r23, Z+1	; 0x01
    2136:	a7 01       	movw	r20, r14
    2138:	ce 01       	movw	r24, r28
    213a:	8f 57       	subi	r24, 0x7F	; 127
    213c:	9f 4f       	sbci	r25, 0xFF	; 255
    213e:	0e 94 71 16 	call	0x2ce2	; 0x2ce2 <__eewr_block_m328p>
		lcd_print_str(0,0,"   CALIBRACAO  ");
    2142:	4a e1       	ldi	r20, 0x1A	; 26
    2144:	55 e0       	ldi	r21, 0x05	; 5
    2146:	60 e0       	ldi	r22, 0x00	; 0
    2148:	80 e0       	ldi	r24, 0x00	; 0
    214a:	0e 94 d8 05 	call	0xbb0	; 0xbb0 <lcd_print_str>
		lcd_print_str(1,0,"   CONCLUIDA   ");
    214e:	4a e2       	ldi	r20, 0x2A	; 42
    2150:	55 e0       	ldi	r21, 0x05	; 5
    2152:	60 e0       	ldi	r22, 0x00	; 0
    2154:	81 e0       	ldi	r24, 0x01	; 1
    2156:	0e 94 d8 05 	call	0xbb0	; 0xbb0 <lcd_print_str>
    215a:	ff ef       	ldi	r31, 0xFF	; 255
    215c:	27 ea       	ldi	r18, 0xA7	; 167
    215e:	31 e6       	ldi	r19, 0x61	; 97
    2160:	f1 50       	subi	r31, 0x01	; 1
    2162:	20 40       	sbci	r18, 0x00	; 0
    2164:	30 40       	sbci	r19, 0x00	; 0
    2166:	e1 f7       	brne	.-8      	; 0x2160 <menu_calibrar_termometro+0x590>
    2168:	00 c0       	rjmp	.+0      	; 0x216a <menu_calibrar_termometro+0x59a>
    216a:	00 00       	nop
		_delay_ms(2000);
	}
}
    216c:	ce 5e       	subi	r28, 0xEE	; 238
    216e:	de 4f       	sbci	r29, 0xFE	; 254
    2170:	0f b6       	in	r0, 0x3f	; 63
    2172:	f8 94       	cli
    2174:	de bf       	out	0x3e, r29	; 62
    2176:	0f be       	out	0x3f, r0	; 63
    2178:	cd bf       	out	0x3d, r28	; 61
    217a:	df 91       	pop	r29
    217c:	cf 91       	pop	r28
    217e:	1f 91       	pop	r17
    2180:	0f 91       	pop	r16
    2182:	ff 90       	pop	r15
    2184:	ef 90       	pop	r14
    2186:	df 90       	pop	r13
    2188:	cf 90       	pop	r12
    218a:	bf 90       	pop	r11
    218c:	af 90       	pop	r10
    218e:	9f 90       	pop	r9
    2190:	8f 90       	pop	r8
    2192:	7f 90       	pop	r7
    2194:	6f 90       	pop	r6
    2196:	5f 90       	pop	r5
    2198:	4f 90       	pop	r4
    219a:	3f 90       	pop	r3
    219c:	2f 90       	pop	r2
    219e:	08 95       	ret

000021a0 <menu_temperaturas>:
void menu_temperaturas(){
    21a0:	4f 92       	push	r4
    21a2:	5f 92       	push	r5
    21a4:	6f 92       	push	r6
    21a6:	7f 92       	push	r7
    21a8:	9f 92       	push	r9
    21aa:	af 92       	push	r10
    21ac:	bf 92       	push	r11
    21ae:	cf 92       	push	r12
    21b0:	df 92       	push	r13
    21b2:	ef 92       	push	r14
    21b4:	ff 92       	push	r15
    21b6:	0f 93       	push	r16
    21b8:	1f 93       	push	r17
    21ba:	cf 93       	push	r28
    21bc:	df 93       	push	r29
	int i = 0;
	float buff;
	lcd_clear();
    21be:	0e 94 d9 06 	call	0xdb2	; 0xdb2 <lcd_clear>
	LCD_CURSOR[0]=-1;
    21c2:	8f ef       	ldi	r24, 0xFF	; 255
    21c4:	80 93 55 06 	sts	0x0655, r24
	lcd_set_mensagem(0,0,15,"Configure aqui as temperaturas maximas e de acionamento (minimas) com \x0A \x0B \x09. \x08 para voltar");
    21c8:	2a e3       	ldi	r18, 0x3A	; 58
    21ca:	35 e0       	ldi	r19, 0x05	; 5
    21cc:	4f e0       	ldi	r20, 0x0F	; 15
    21ce:	60 e0       	ldi	r22, 0x00	; 0
    21d0:	80 e0       	ldi	r24, 0x00	; 0
    21d2:	0e 94 e8 06 	call	0xdd0	; 0xdd0 <lcd_set_mensagem>
		lcd_print_str(1,0,"   CONCLUIDA   ");
		_delay_ms(2000);
	}
}
void menu_temperaturas(){
	int i = 0;
    21d6:	c0 e0       	ldi	r28, 0x00	; 0
    21d8:	d0 e0       	ldi	r29, 0x00	; 0
			case 3: lcd_print_str(1,0,"Tmax 1:        "); break;
		}
		lcd_print_float_31(1,7,eeprom_read_float(TEMP_MINMAX+i));
		switch(botoes_ler(10000)){
			case 1: i++; if(i>=4)i=0; break;
			case 2: i--; if(i<0)i=3; break;
    21da:	0f 2e       	mov	r0, r31
    21dc:	f3 e0       	ldi	r31, 0x03	; 3
    21de:	af 2e       	mov	r10, r31
    21e0:	b1 2c       	mov	r11, r1
    21e2:	f0 2d       	mov	r31, r0
			case 3: 
				lcd_print_str(1,0,"               ");
				buff = ler_float(1,3,eeprom_read_float(TEMP_MINMAX+i));
				LCD_CURSOR[0]=-1;
    21e4:	0f 2e       	mov	r0, r31
    21e6:	f5 e5       	ldi	r31, 0x55	; 85
    21e8:	ef 2e       	mov	r14, r31
    21ea:	f6 e0       	ldi	r31, 0x06	; 6
    21ec:	ff 2e       	mov	r15, r31
    21ee:	f0 2d       	mov	r31, r0
    21f0:	99 24       	eor	r9, r9
    21f2:	9a 94       	dec	r9
			case 2: lcd_print_str(1,0,"Tmin 1:        "); break;
			case 3: lcd_print_str(1,0,"Tmax 1:        "); break;
		}
		lcd_print_float_31(1,7,eeprom_read_float(TEMP_MINMAX+i));
		switch(botoes_ler(10000)){
			case 1: i++; if(i>=4)i=0; break;
    21f4:	c1 2c       	mov	r12, r1
    21f6:	d1 2c       	mov	r13, r1
    21f8:	03 c0       	rjmp	.+6      	; 0x2200 <menu_temperaturas+0x60>
    21fa:	e6 01       	movw	r28, r12
    21fc:	01 c0       	rjmp	.+2      	; 0x2200 <menu_temperaturas+0x60>
			case 2: i--; if(i<0)i=3; break;
    21fe:	e5 01       	movw	r28, r10
	float buff;
	lcd_clear();
	LCD_CURSOR[0]=-1;
	lcd_set_mensagem(0,0,15,"Configure aqui as temperaturas maximas e de acionamento (minimas) com \x0A \x0B \x09. \x08 para voltar");
	while(1){
		switch(i){
    2200:	c1 30       	cpi	r28, 0x01	; 1
    2202:	d1 05       	cpc	r29, r1
    2204:	91 f0       	breq	.+36     	; 0x222a <menu_temperaturas+0x8a>
    2206:	1c f4       	brge	.+6      	; 0x220e <menu_temperaturas+0x6e>
    2208:	20 97       	sbiw	r28, 0x00	; 0
    220a:	41 f0       	breq	.+16     	; 0x221c <menu_temperaturas+0x7c>
    220c:	22 c0       	rjmp	.+68     	; 0x2252 <menu_temperaturas+0xb2>
    220e:	c2 30       	cpi	r28, 0x02	; 2
    2210:	d1 05       	cpc	r29, r1
    2212:	91 f0       	breq	.+36     	; 0x2238 <menu_temperaturas+0x98>
    2214:	c3 30       	cpi	r28, 0x03	; 3
    2216:	d1 05       	cpc	r29, r1
    2218:	e1 f4       	brne	.+56     	; 0x2252 <menu_temperaturas+0xb2>
    221a:	15 c0       	rjmp	.+42     	; 0x2246 <menu_temperaturas+0xa6>
			case 0: lcd_print_str(1,0,"Tmin 0:        "); break;
    221c:	45 e9       	ldi	r20, 0x95	; 149
    221e:	55 e0       	ldi	r21, 0x05	; 5
    2220:	60 e0       	ldi	r22, 0x00	; 0
    2222:	81 e0       	ldi	r24, 0x01	; 1
    2224:	0e 94 d8 05 	call	0xbb0	; 0xbb0 <lcd_print_str>
    2228:	14 c0       	rjmp	.+40     	; 0x2252 <menu_temperaturas+0xb2>
			case 1: lcd_print_str(1,0,"Tmax 0:        "); break;
    222a:	45 ea       	ldi	r20, 0xA5	; 165
    222c:	55 e0       	ldi	r21, 0x05	; 5
    222e:	60 e0       	ldi	r22, 0x00	; 0
    2230:	81 e0       	ldi	r24, 0x01	; 1
    2232:	0e 94 d8 05 	call	0xbb0	; 0xbb0 <lcd_print_str>
    2236:	0d c0       	rjmp	.+26     	; 0x2252 <menu_temperaturas+0xb2>
			case 2: lcd_print_str(1,0,"Tmin 1:        "); break;
    2238:	45 eb       	ldi	r20, 0xB5	; 181
    223a:	55 e0       	ldi	r21, 0x05	; 5
    223c:	60 e0       	ldi	r22, 0x00	; 0
    223e:	81 e0       	ldi	r24, 0x01	; 1
    2240:	0e 94 d8 05 	call	0xbb0	; 0xbb0 <lcd_print_str>
    2244:	06 c0       	rjmp	.+12     	; 0x2252 <menu_temperaturas+0xb2>
			case 3: lcd_print_str(1,0,"Tmax 1:        "); break;
    2246:	45 ec       	ldi	r20, 0xC5	; 197
    2248:	55 e0       	ldi	r21, 0x05	; 5
    224a:	60 e0       	ldi	r22, 0x00	; 0
    224c:	81 e0       	ldi	r24, 0x01	; 1
    224e:	0e 94 d8 05 	call	0xbb0	; 0xbb0 <lcd_print_str>
		}
		lcd_print_float_31(1,7,eeprom_read_float(TEMP_MINMAX+i));
    2252:	8e 01       	movw	r16, r28
    2254:	00 0f       	add	r16, r16
    2256:	11 1f       	adc	r17, r17
    2258:	00 0f       	add	r16, r16
    225a:	11 1f       	adc	r17, r17
    225c:	80 91 02 01 	lds	r24, 0x0102
    2260:	90 91 03 01 	lds	r25, 0x0103
    2264:	80 0f       	add	r24, r16
    2266:	91 1f       	adc	r25, r17
    2268:	0e 94 65 16 	call	0x2cca	; 0x2cca <__eerd_dword_m328p>
    226c:	9b 01       	movw	r18, r22
    226e:	ac 01       	movw	r20, r24
    2270:	67 e0       	ldi	r22, 0x07	; 7
    2272:	81 e0       	ldi	r24, 0x01	; 1
    2274:	0e 94 4e 06 	call	0xc9c	; 0xc9c <lcd_print_float_31>
		switch(botoes_ler(10000)){
    2278:	80 e1       	ldi	r24, 0x10	; 16
    227a:	97 e2       	ldi	r25, 0x27	; 39
    227c:	0e 94 ce 00 	call	0x19c	; 0x19c <botoes_ler>
    2280:	82 30       	cpi	r24, 0x02	; 2
    2282:	89 f0       	breq	.+34     	; 0x22a6 <menu_temperaturas+0x106>
    2284:	20 f4       	brcc	.+8      	; 0x228e <menu_temperaturas+0xee>
    2286:	81 30       	cpi	r24, 0x01	; 1
    2288:	09 f0       	breq	.+2      	; 0x228c <menu_temperaturas+0xec>
    228a:	ba cf       	rjmp	.-140    	; 0x2200 <menu_temperaturas+0x60>
    228c:	06 c0       	rjmp	.+12     	; 0x229a <menu_temperaturas+0xfa>
    228e:	83 30       	cpi	r24, 0x03	; 3
    2290:	71 f0       	breq	.+28     	; 0x22ae <menu_temperaturas+0x10e>
    2292:	84 30       	cpi	r24, 0x04	; 4
    2294:	09 f0       	breq	.+2      	; 0x2298 <menu_temperaturas+0xf8>
    2296:	b4 cf       	rjmp	.-152    	; 0x2200 <menu_temperaturas+0x60>
    2298:	36 c0       	rjmp	.+108    	; 0x2306 <menu_temperaturas+0x166>
			case 1: i++; if(i>=4)i=0; break;
    229a:	21 96       	adiw	r28, 0x01	; 1
    229c:	c4 30       	cpi	r28, 0x04	; 4
    229e:	d1 05       	cpc	r29, r1
    22a0:	0c f0       	brlt	.+2      	; 0x22a4 <menu_temperaturas+0x104>
    22a2:	ab cf       	rjmp	.-170    	; 0x21fa <menu_temperaturas+0x5a>
    22a4:	ad cf       	rjmp	.-166    	; 0x2200 <menu_temperaturas+0x60>
			case 2: i--; if(i<0)i=3; break;
    22a6:	21 97       	sbiw	r28, 0x01	; 1
    22a8:	0a f0       	brmi	.+2      	; 0x22ac <menu_temperaturas+0x10c>
    22aa:	aa cf       	rjmp	.-172    	; 0x2200 <menu_temperaturas+0x60>
    22ac:	a8 cf       	rjmp	.-176    	; 0x21fe <menu_temperaturas+0x5e>
			case 3: 
				lcd_print_str(1,0,"               ");
    22ae:	4b e1       	ldi	r20, 0x1B	; 27
    22b0:	52 e0       	ldi	r21, 0x02	; 2
    22b2:	60 e0       	ldi	r22, 0x00	; 0
    22b4:	81 e0       	ldi	r24, 0x01	; 1
    22b6:	0e 94 d8 05 	call	0xbb0	; 0xbb0 <lcd_print_str>
				buff = ler_float(1,3,eeprom_read_float(TEMP_MINMAX+i));
    22ba:	80 91 02 01 	lds	r24, 0x0102
    22be:	90 91 03 01 	lds	r25, 0x0103
    22c2:	80 0f       	add	r24, r16
    22c4:	91 1f       	adc	r25, r17
    22c6:	0e 94 65 16 	call	0x2cca	; 0x2cca <__eerd_dword_m328p>
    22ca:	9b 01       	movw	r18, r22
    22cc:	ac 01       	movw	r20, r24
    22ce:	63 e0       	ldi	r22, 0x03	; 3
    22d0:	81 e0       	ldi	r24, 0x01	; 1
    22d2:	0e 94 dd 07 	call	0xfba	; 0xfba <ler_float>
    22d6:	2b 01       	movw	r4, r22
    22d8:	3c 01       	movw	r6, r24
				LCD_CURSOR[0]=-1;
    22da:	f7 01       	movw	r30, r14
    22dc:	90 82       	st	Z, r9
				if(buff>-100){
    22de:	20 e0       	ldi	r18, 0x00	; 0
    22e0:	30 e0       	ldi	r19, 0x00	; 0
    22e2:	48 ec       	ldi	r20, 0xC8	; 200
    22e4:	52 ec       	ldi	r21, 0xC2	; 194
    22e6:	0e 94 98 15 	call	0x2b30	; 0x2b30 <__gesf2>
    22ea:	18 16       	cp	r1, r24
    22ec:	0c f0       	brlt	.+2      	; 0x22f0 <menu_temperaturas+0x150>
    22ee:	88 cf       	rjmp	.-240    	; 0x2200 <menu_temperaturas+0x60>
					eeprom_write_float(TEMP_MINMAX+i, buff);
    22f0:	80 91 02 01 	lds	r24, 0x0102
    22f4:	90 91 03 01 	lds	r25, 0x0103
    22f8:	b3 01       	movw	r22, r6
    22fa:	a2 01       	movw	r20, r4
    22fc:	80 0f       	add	r24, r16
    22fe:	91 1f       	adc	r25, r17
    2300:	0e 94 89 16 	call	0x2d12	; 0x2d12 <__eewr_dword_m328p>
    2304:	7d cf       	rjmp	.-262    	; 0x2200 <menu_temperaturas+0x60>
				}
				break;
			case 4: return;
		}
	}
}
    2306:	df 91       	pop	r29
    2308:	cf 91       	pop	r28
    230a:	1f 91       	pop	r17
    230c:	0f 91       	pop	r16
    230e:	ff 90       	pop	r15
    2310:	ef 90       	pop	r14
    2312:	df 90       	pop	r13
    2314:	cf 90       	pop	r12
    2316:	bf 90       	pop	r11
    2318:	af 90       	pop	r10
    231a:	9f 90       	pop	r9
    231c:	7f 90       	pop	r7
    231e:	6f 90       	pop	r6
    2320:	5f 90       	pop	r5
    2322:	4f 90       	pop	r4
    2324:	08 95       	ret

00002326 <menu_info_temperatura>:
void menu_info_temperatura(){
    2326:	2f 92       	push	r2
    2328:	3f 92       	push	r3
    232a:	4f 92       	push	r4
    232c:	5f 92       	push	r5
    232e:	6f 92       	push	r6
    2330:	7f 92       	push	r7
    2332:	8f 92       	push	r8
    2334:	9f 92       	push	r9
    2336:	af 92       	push	r10
    2338:	bf 92       	push	r11
    233a:	cf 92       	push	r12
    233c:	df 92       	push	r13
    233e:	ef 92       	push	r14
    2340:	ff 92       	push	r15
    2342:	0f 93       	push	r16
    2344:	1f 93       	push	r17
    2346:	cf 93       	push	r28
    2348:	df 93       	push	r29
	int menu = 0;
	int offset1 = eeprom_read_word(CAL_TAMANHO[0]);
    234a:	80 91 0c 01 	lds	r24, 0x010C
    234e:	90 91 0d 01 	lds	r25, 0x010D
    2352:	0e 94 6b 16 	call	0x2cd6	; 0x2cd6 <__eerd_word_m328p>
    2356:	4c 01       	movw	r8, r24
    2358:	8c 01       	movw	r16, r24
	int offset2 = eeprom_read_word(CAL_TAMANHO[1]);
    235a:	80 91 0e 01 	lds	r24, 0x010E
    235e:	90 91 0f 01 	lds	r25, 0x010F
    2362:	0e 94 6b 16 	call	0x2cd6	; 0x2cd6 <__eerd_word_m328p>
    2366:	e8 2e       	mov	r14, r24
    2368:	f9 2e       	mov	r15, r25
	lcd_clear();
    236a:	0e 94 d9 06 	call	0xdb2	; 0xdb2 <lcd_clear>
	LCD_CURSOR[0]=-1;
    236e:	8f ef       	ldi	r24, 0xFF	; 255
    2370:	80 93 55 06 	sts	0x0655, r24
			case 4: return;
		}
	}
}
void menu_info_temperatura(){
	int menu = 0;
    2374:	c0 e0       	ldi	r28, 0x00	; 0
    2376:	d0 e0       	ldi	r29, 0x00	; 0
			lcd_print_float_31(1,8,	eeprom_read_float(CAL_VAL_Y[0]+menu-1));
		}else{
			lcd_print_str(0,0,"S2: Codigo     ");
			lcd_print_str(1,0,"      ->       ");
			lcd_print_int(0,11,menu-1-offset1);
			lcd_print_float_31(1,0,	eeprom_read_float(CAL_VAL_X[1]+menu-1-offset1));
    2378:	80 94       	com	r8
    237a:	90 94       	com	r9
    237c:	0f 2e       	mov	r0, r31
    237e:	fa e0       	ldi	r31, 0x0A	; 10
    2380:	af 2e       	mov	r10, r31
    2382:	f1 e0       	ldi	r31, 0x01	; 1
    2384:	bf 2e       	mov	r11, r31
    2386:	f0 2d       	mov	r31, r0
			lcd_print_float_31(1,8,corrigir_sensor(1,ADC_LEITURA[1]));
		}else if(menu<=offset1){
			lcd_print_str(0,0,"S1: Codigo     ");
			lcd_print_str(1,0,"      ->       ");
			lcd_print_int(0,11,menu-1);
			lcd_print_float_31(1,0,	eeprom_read_float(CAL_VAL_X[0]+menu-1));
    2388:	0f 2e       	mov	r0, r31
    238a:	f8 e0       	ldi	r31, 0x08	; 8
    238c:	6f 2e       	mov	r6, r31
    238e:	f1 e0       	ldi	r31, 0x01	; 1
    2390:	7f 2e       	mov	r7, r31
    2392:	f0 2d       	mov	r31, r0
			lcd_print_float_31(1,8,	eeprom_read_float(CAL_VAL_Y[0]+menu-1));
    2394:	0f 2e       	mov	r0, r31
    2396:	f4 e0       	ldi	r31, 0x04	; 4
    2398:	4f 2e       	mov	r4, r31
    239a:	f1 e0       	ldi	r31, 0x01	; 1
    239c:	5f 2e       	mov	r5, r31
    239e:	f0 2d       	mov	r31, r0
					menu = 0;
				break;
			case 2: 
				menu--; 
				if(menu<0)
					menu = offset1+offset2;
    23a0:	18 01       	movw	r2, r16
    23a2:	2e 0c       	add	r2, r14
    23a4:	3f 1c       	adc	r3, r15
		}
		switch(botoes_ler(1000)){
			case 1: 
				menu++; 
				if(menu>offset1+offset2)
					menu = 0;
    23a6:	c1 2c       	mov	r12, r1
    23a8:	d1 2c       	mov	r13, r1
    23aa:	01 c0       	rjmp	.+2      	; 0x23ae <menu_info_temperatura+0x88>
    23ac:	e6 01       	movw	r28, r12
	int offset1 = eeprom_read_word(CAL_TAMANHO[0]);
	int offset2 = eeprom_read_word(CAL_TAMANHO[1]);
	lcd_clear();
	LCD_CURSOR[0]=-1;
	while(1){
		if(menu==0){
    23ae:	20 97       	sbiw	r28, 0x00	; 0
    23b0:	b9 f5       	brne	.+110    	; 0x2420 <menu_info_temperatura+0xfa>
			lcd_print_str(0,0,"Term.1:        ");
    23b2:	45 ed       	ldi	r20, 0xD5	; 213
    23b4:	55 e0       	ldi	r21, 0x05	; 5
    23b6:	60 e0       	ldi	r22, 0x00	; 0
    23b8:	80 e0       	ldi	r24, 0x00	; 0
    23ba:	0e 94 d8 05 	call	0xbb0	; 0xbb0 <lcd_print_str>
			lcd_print_str(1,0,"Term.2:        ");
    23be:	45 ee       	ldi	r20, 0xE5	; 229
    23c0:	55 e0       	ldi	r21, 0x05	; 5
    23c2:	60 e0       	ldi	r22, 0x00	; 0
    23c4:	81 e0       	ldi	r24, 0x01	; 1
    23c6:	0e 94 d8 05 	call	0xbb0	; 0xbb0 <lcd_print_str>
			lcd_print_float_31(0,8,corrigir_sensor(0,ADC_LEITURA[0]));
    23ca:	e1 e5       	ldi	r30, 0x51	; 81
    23cc:	f6 e0       	ldi	r31, 0x06	; 6
    23ce:	60 81       	ld	r22, Z
    23d0:	71 81       	ldd	r23, Z+1	; 0x01
    23d2:	88 27       	eor	r24, r24
    23d4:	77 fd       	sbrc	r23, 7
    23d6:	80 95       	com	r24
    23d8:	98 2f       	mov	r25, r24
    23da:	0e 94 e8 14 	call	0x29d0	; 0x29d0 <__floatsisf>
    23de:	ab 01       	movw	r20, r22
    23e0:	bc 01       	movw	r22, r24
    23e2:	80 e0       	ldi	r24, 0x00	; 0
    23e4:	0e 94 ce 08 	call	0x119c	; 0x119c <corrigir_sensor>
    23e8:	9b 01       	movw	r18, r22
    23ea:	ac 01       	movw	r20, r24
    23ec:	68 e0       	ldi	r22, 0x08	; 8
    23ee:	80 e0       	ldi	r24, 0x00	; 0
    23f0:	0e 94 4e 06 	call	0xc9c	; 0xc9c <lcd_print_float_31>
			lcd_print_float_31(1,8,corrigir_sensor(1,ADC_LEITURA[1]));
    23f4:	e3 e5       	ldi	r30, 0x53	; 83
    23f6:	f6 e0       	ldi	r31, 0x06	; 6
    23f8:	60 81       	ld	r22, Z
    23fa:	71 81       	ldd	r23, Z+1	; 0x01
    23fc:	88 27       	eor	r24, r24
    23fe:	77 fd       	sbrc	r23, 7
    2400:	80 95       	com	r24
    2402:	98 2f       	mov	r25, r24
    2404:	0e 94 e8 14 	call	0x29d0	; 0x29d0 <__floatsisf>
    2408:	ab 01       	movw	r20, r22
    240a:	bc 01       	movw	r22, r24
    240c:	81 e0       	ldi	r24, 0x01	; 1
    240e:	0e 94 ce 08 	call	0x119c	; 0x119c <corrigir_sensor>
    2412:	9b 01       	movw	r18, r22
    2414:	ac 01       	movw	r20, r24
    2416:	68 e0       	ldi	r22, 0x08	; 8
    2418:	81 e0       	ldi	r24, 0x01	; 1
    241a:	0e 94 4e 06 	call	0xc9c	; 0xc9c <lcd_print_float_31>
    241e:	6e c0       	rjmp	.+220    	; 0x24fc <menu_info_temperatura+0x1d6>
		}else if(menu<=offset1){
    2420:	0c 17       	cp	r16, r28
    2422:	1d 07       	cpc	r17, r29
    2424:	a4 f1       	brlt	.+104    	; 0x248e <menu_info_temperatura+0x168>
			lcd_print_str(0,0,"S1: Codigo     ");
    2426:	45 ef       	ldi	r20, 0xF5	; 245
    2428:	55 e0       	ldi	r21, 0x05	; 5
    242a:	60 e0       	ldi	r22, 0x00	; 0
    242c:	80 e0       	ldi	r24, 0x00	; 0
    242e:	0e 94 d8 05 	call	0xbb0	; 0xbb0 <lcd_print_str>
			lcd_print_str(1,0,"      ->       ");
    2432:	45 e0       	ldi	r20, 0x05	; 5
    2434:	56 e0       	ldi	r21, 0x06	; 6
    2436:	60 e0       	ldi	r22, 0x00	; 0
    2438:	81 e0       	ldi	r24, 0x01	; 1
    243a:	0e 94 d8 05 	call	0xbb0	; 0xbb0 <lcd_print_str>
			lcd_print_int(0,11,menu-1);
    243e:	7e 01       	movw	r14, r28
    2440:	f1 e0       	ldi	r31, 0x01	; 1
    2442:	ef 1a       	sub	r14, r31
    2444:	f1 08       	sbc	r15, r1
    2446:	a7 01       	movw	r20, r14
    2448:	6b e0       	ldi	r22, 0x0B	; 11
    244a:	80 e0       	ldi	r24, 0x00	; 0
    244c:	0e 94 f0 05 	call	0xbe0	; 0xbe0 <lcd_print_int>
			lcd_print_float_31(1,0,	eeprom_read_float(CAL_VAL_X[0]+menu-1));
    2450:	ee 0c       	add	r14, r14
    2452:	ff 1c       	adc	r15, r15
    2454:	ee 0c       	add	r14, r14
    2456:	ff 1c       	adc	r15, r15
    2458:	f3 01       	movw	r30, r6
    245a:	80 81       	ld	r24, Z
    245c:	91 81       	ldd	r25, Z+1	; 0x01
    245e:	8e 0d       	add	r24, r14
    2460:	9f 1d       	adc	r25, r15
    2462:	0e 94 65 16 	call	0x2cca	; 0x2cca <__eerd_dword_m328p>
    2466:	9b 01       	movw	r18, r22
    2468:	ac 01       	movw	r20, r24
    246a:	60 e0       	ldi	r22, 0x00	; 0
    246c:	81 e0       	ldi	r24, 0x01	; 1
    246e:	0e 94 4e 06 	call	0xc9c	; 0xc9c <lcd_print_float_31>
			lcd_print_float_31(1,8,	eeprom_read_float(CAL_VAL_Y[0]+menu-1));
    2472:	f2 01       	movw	r30, r4
    2474:	80 81       	ld	r24, Z
    2476:	91 81       	ldd	r25, Z+1	; 0x01
    2478:	8e 0d       	add	r24, r14
    247a:	9f 1d       	adc	r25, r15
    247c:	0e 94 65 16 	call	0x2cca	; 0x2cca <__eerd_dword_m328p>
    2480:	9b 01       	movw	r18, r22
    2482:	ac 01       	movw	r20, r24
    2484:	68 e0       	ldi	r22, 0x08	; 8
    2486:	81 e0       	ldi	r24, 0x01	; 1
    2488:	0e 94 4e 06 	call	0xc9c	; 0xc9c <lcd_print_float_31>
    248c:	37 c0       	rjmp	.+110    	; 0x24fc <menu_info_temperatura+0x1d6>
		}else{
			lcd_print_str(0,0,"S2: Codigo     ");
    248e:	45 e1       	ldi	r20, 0x15	; 21
    2490:	56 e0       	ldi	r21, 0x06	; 6
    2492:	60 e0       	ldi	r22, 0x00	; 0
    2494:	80 e0       	ldi	r24, 0x00	; 0
    2496:	0e 94 d8 05 	call	0xbb0	; 0xbb0 <lcd_print_str>
			lcd_print_str(1,0,"      ->       ");
    249a:	45 e0       	ldi	r20, 0x05	; 5
    249c:	56 e0       	ldi	r21, 0x06	; 6
    249e:	60 e0       	ldi	r22, 0x00	; 0
    24a0:	81 e0       	ldi	r24, 0x01	; 1
    24a2:	0e 94 d8 05 	call	0xbb0	; 0xbb0 <lcd_print_str>
			lcd_print_int(0,11,menu-1-offset1);
    24a6:	ae 01       	movw	r20, r28
    24a8:	41 50       	subi	r20, 0x01	; 1
    24aa:	51 09       	sbc	r21, r1
    24ac:	40 1b       	sub	r20, r16
    24ae:	51 0b       	sbc	r21, r17
    24b0:	6b e0       	ldi	r22, 0x0B	; 11
    24b2:	80 e0       	ldi	r24, 0x00	; 0
    24b4:	0e 94 f0 05 	call	0xbe0	; 0xbe0 <lcd_print_int>
			lcd_print_float_31(1,0,	eeprom_read_float(CAL_VAL_X[1]+menu-1-offset1));
    24b8:	74 01       	movw	r14, r8
    24ba:	ec 0e       	add	r14, r28
    24bc:	fd 1e       	adc	r15, r29
    24be:	ee 0c       	add	r14, r14
    24c0:	ff 1c       	adc	r15, r15
    24c2:	ee 0c       	add	r14, r14
    24c4:	ff 1c       	adc	r15, r15
    24c6:	f5 01       	movw	r30, r10
    24c8:	80 81       	ld	r24, Z
    24ca:	91 81       	ldd	r25, Z+1	; 0x01
    24cc:	8e 0d       	add	r24, r14
    24ce:	9f 1d       	adc	r25, r15
    24d0:	0e 94 65 16 	call	0x2cca	; 0x2cca <__eerd_dword_m328p>
    24d4:	9b 01       	movw	r18, r22
    24d6:	ac 01       	movw	r20, r24
    24d8:	60 e0       	ldi	r22, 0x00	; 0
    24da:	81 e0       	ldi	r24, 0x01	; 1
    24dc:	0e 94 4e 06 	call	0xc9c	; 0xc9c <lcd_print_float_31>
			lcd_print_float_31(1,8,	eeprom_read_float(CAL_VAL_Y[1]+menu-1-offset1));
    24e0:	e6 e0       	ldi	r30, 0x06	; 6
    24e2:	f1 e0       	ldi	r31, 0x01	; 1
    24e4:	80 81       	ld	r24, Z
    24e6:	91 81       	ldd	r25, Z+1	; 0x01
    24e8:	8e 0d       	add	r24, r14
    24ea:	9f 1d       	adc	r25, r15
    24ec:	0e 94 65 16 	call	0x2cca	; 0x2cca <__eerd_dword_m328p>
    24f0:	9b 01       	movw	r18, r22
    24f2:	ac 01       	movw	r20, r24
    24f4:	68 e0       	ldi	r22, 0x08	; 8
    24f6:	81 e0       	ldi	r24, 0x01	; 1
    24f8:	0e 94 4e 06 	call	0xc9c	; 0xc9c <lcd_print_float_31>
		}
		switch(botoes_ler(1000)){
    24fc:	88 ee       	ldi	r24, 0xE8	; 232
    24fe:	93 e0       	ldi	r25, 0x03	; 3
    2500:	0e 94 ce 00 	call	0x19c	; 0x19c <botoes_ler>
    2504:	82 30       	cpi	r24, 0x02	; 2
    2506:	59 f0       	breq	.+22     	; 0x251e <menu_info_temperatura+0x1f8>
    2508:	84 30       	cpi	r24, 0x04	; 4
    250a:	71 f0       	breq	.+28     	; 0x2528 <menu_info_temperatura+0x202>
    250c:	81 30       	cpi	r24, 0x01	; 1
    250e:	09 f0       	breq	.+2      	; 0x2512 <menu_info_temperatura+0x1ec>
    2510:	4e cf       	rjmp	.-356    	; 0x23ae <menu_info_temperatura+0x88>
			case 1: 
				menu++; 
    2512:	21 96       	adiw	r28, 0x01	; 1
				if(menu>offset1+offset2)
    2514:	2c 16       	cp	r2, r28
    2516:	3d 06       	cpc	r3, r29
    2518:	0c f4       	brge	.+2      	; 0x251c <menu_info_temperatura+0x1f6>
    251a:	48 cf       	rjmp	.-368    	; 0x23ac <menu_info_temperatura+0x86>
    251c:	48 cf       	rjmp	.-368    	; 0x23ae <menu_info_temperatura+0x88>
					menu = 0;
				break;
			case 2: 
				menu--; 
    251e:	21 97       	sbiw	r28, 0x01	; 1
				if(menu<0)
    2520:	0a f0       	brmi	.+2      	; 0x2524 <menu_info_temperatura+0x1fe>
    2522:	45 cf       	rjmp	.-374    	; 0x23ae <menu_info_temperatura+0x88>
					menu = offset1+offset2;
    2524:	e1 01       	movw	r28, r2
    2526:	43 cf       	rjmp	.-378    	; 0x23ae <menu_info_temperatura+0x88>
				break;
			case 4: return;
		}
	}
	
}
    2528:	df 91       	pop	r29
    252a:	cf 91       	pop	r28
    252c:	1f 91       	pop	r17
    252e:	0f 91       	pop	r16
    2530:	ff 90       	pop	r15
    2532:	ef 90       	pop	r14
    2534:	df 90       	pop	r13
    2536:	cf 90       	pop	r12
    2538:	bf 90       	pop	r11
    253a:	af 90       	pop	r10
    253c:	9f 90       	pop	r9
    253e:	8f 90       	pop	r8
    2540:	7f 90       	pop	r7
    2542:	6f 90       	pop	r6
    2544:	5f 90       	pop	r5
    2546:	4f 90       	pop	r4
    2548:	3f 90       	pop	r3
    254a:	2f 90       	pop	r2
    254c:	08 95       	ret

0000254e <interrupt_1ms>:
void interrupt_1ms(){
    254e:	8f 92       	push	r8
    2550:	9f 92       	push	r9
    2552:	af 92       	push	r10
    2554:	bf 92       	push	r11
    2556:	cf 92       	push	r12
    2558:	df 92       	push	r13
    255a:	ef 92       	push	r14
    255c:	ff 92       	push	r15
    255e:	cf 93       	push	r28
    2560:	df 93       	push	r29
	int buff;
	if(botao_baixo() && botao_esquerda()){
    2562:	0e 94 b6 00 	call	0x16c	; 0x16c <botao_baixo>
    2566:	88 23       	and	r24, r24
    2568:	59 f0       	breq	.+22     	; 0x2580 <interrupt_1ms+0x32>
    256a:	0e 94 c0 00 	call	0x180	; 0x180 <botao_esquerda>
    256e:	88 23       	and	r24, r24
    2570:	39 f0       	breq	.+14     	; 0x2580 <interrupt_1ms+0x32>
		motor_parar();
    2572:	0e 94 84 00 	call	0x108	; 0x108 <motor_parar>
		aquecedor_desligar();
    2576:	0e 94 7c 00 	call	0xf8	; 0xf8 <aquecedor_desligar>
		PARADA_EMERGENCIA = 1;
    257a:	81 e0       	ldi	r24, 0x01	; 1
    257c:	80 93 57 06 	sts	0x0657, r24
	}
	if(MILLIS_TOPPED&1){
    2580:	80 91 2b 06 	lds	r24, 0x062B
    2584:	80 ff       	sbrs	r24, 0
    2586:	1d c0       	rjmp	.+58     	; 0x25c2 <interrupt_1ms+0x74>
		buff = async_adc_read(0); //Valor do 1 aqui
    2588:	80 e0       	ldi	r24, 0x00	; 0
    258a:	0e 94 66 00 	call	0xcc	; 0xcc <async_adc_read>
		ADC_LEITURA[1] = (ADC_LEITURA[1]*7+buff)>>3;
    258e:	e3 e5       	ldi	r30, 0x53	; 83
    2590:	f6 e0       	ldi	r31, 0x06	; 6
    2592:	20 81       	ld	r18, Z
    2594:	31 81       	ldd	r19, Z+1	; 0x01
    2596:	a9 01       	movw	r20, r18
    2598:	44 0f       	add	r20, r20
    259a:	55 1f       	adc	r21, r21
    259c:	44 0f       	add	r20, r20
    259e:	55 1f       	adc	r21, r21
    25a0:	44 0f       	add	r20, r20
    25a2:	55 1f       	adc	r21, r21
    25a4:	ba 01       	movw	r22, r20
    25a6:	62 1b       	sub	r22, r18
    25a8:	73 0b       	sbc	r23, r19
    25aa:	86 0f       	add	r24, r22
    25ac:	97 1f       	adc	r25, r23
    25ae:	9c 01       	movw	r18, r24
    25b0:	35 95       	asr	r19
    25b2:	27 95       	ror	r18
    25b4:	35 95       	asr	r19
    25b6:	27 95       	ror	r18
    25b8:	35 95       	asr	r19
    25ba:	27 95       	ror	r18
    25bc:	31 83       	std	Z+1, r19	; 0x01
    25be:	20 83       	st	Z, r18
    25c0:	1c c0       	rjmp	.+56     	; 0x25fa <interrupt_1ms+0xac>
	}else{
		buff = async_adc_read(1); //valor do 0 retornado
    25c2:	81 e0       	ldi	r24, 0x01	; 1
    25c4:	0e 94 66 00 	call	0xcc	; 0xcc <async_adc_read>
		ADC_LEITURA[0] = (ADC_LEITURA[0]*7+buff)>>3;
    25c8:	e1 e5       	ldi	r30, 0x51	; 81
    25ca:	f6 e0       	ldi	r31, 0x06	; 6
    25cc:	20 81       	ld	r18, Z
    25ce:	31 81       	ldd	r19, Z+1	; 0x01
    25d0:	a9 01       	movw	r20, r18
    25d2:	44 0f       	add	r20, r20
    25d4:	55 1f       	adc	r21, r21
    25d6:	44 0f       	add	r20, r20
    25d8:	55 1f       	adc	r21, r21
    25da:	44 0f       	add	r20, r20
    25dc:	55 1f       	adc	r21, r21
    25de:	ba 01       	movw	r22, r20
    25e0:	62 1b       	sub	r22, r18
    25e2:	73 0b       	sbc	r23, r19
    25e4:	86 0f       	add	r24, r22
    25e6:	97 1f       	adc	r25, r23
    25e8:	9c 01       	movw	r18, r24
    25ea:	35 95       	asr	r19
    25ec:	27 95       	ror	r18
    25ee:	35 95       	asr	r19
    25f0:	27 95       	ror	r18
    25f2:	35 95       	asr	r19
    25f4:	27 95       	ror	r18
    25f6:	31 83       	std	Z+1, r19	; 0x01
    25f8:	20 83       	st	Z, r18
	}
	if((MILLIS_TOPPED%100)==0){
    25fa:	80 91 2b 06 	lds	r24, 0x062B
    25fe:	90 91 2c 06 	lds	r25, 0x062C
    2602:	64 e6       	ldi	r22, 0x64	; 100
    2604:	70 e0       	ldi	r23, 0x00	; 0
    2606:	0e 94 ff 15 	call	0x2bfe	; 0x2bfe <__divmodhi4>
    260a:	89 2b       	or	r24, r25
    260c:	09 f0       	breq	.+2      	; 0x2610 <interrupt_1ms+0xc2>
    260e:	40 c0       	rjmp	.+128    	; 0x2690 <interrupt_1ms+0x142>
		float t0 = corrigir_sensor(0,ADC_LEITURA[0]);
    2610:	60 91 51 06 	lds	r22, 0x0651
    2614:	70 91 52 06 	lds	r23, 0x0652
    2618:	88 27       	eor	r24, r24
    261a:	77 fd       	sbrc	r23, 7
    261c:	80 95       	com	r24
    261e:	98 2f       	mov	r25, r24
    2620:	0e 94 e8 14 	call	0x29d0	; 0x29d0 <__floatsisf>
    2624:	ab 01       	movw	r20, r22
    2626:	bc 01       	movw	r22, r24
    2628:	80 e0       	ldi	r24, 0x00	; 0
    262a:	0e 94 ce 08 	call	0x119c	; 0x119c <corrigir_sensor>
    262e:	6b 01       	movw	r12, r22
    2630:	7c 01       	movw	r14, r24
		float t1 = corrigir_sensor(1,ADC_LEITURA[1]);
    2632:	60 91 53 06 	lds	r22, 0x0653
    2636:	70 91 54 06 	lds	r23, 0x0654
    263a:	88 27       	eor	r24, r24
    263c:	77 fd       	sbrc	r23, 7
    263e:	80 95       	com	r24
    2640:	98 2f       	mov	r25, r24
    2642:	0e 94 e8 14 	call	0x29d0	; 0x29d0 <__floatsisf>
    2646:	ab 01       	movw	r20, r22
    2648:	bc 01       	movw	r22, r24
    264a:	81 e0       	ldi	r24, 0x01	; 1
    264c:	0e 94 ce 08 	call	0x119c	; 0x119c <corrigir_sensor>
    2650:	4b 01       	movw	r8, r22
    2652:	5c 01       	movw	r10, r24
		if(t0>eeprom_read_float(TEMP_MINMAX+1) || t1>eeprom_read_float(TEMP_MINMAX+3)){
    2654:	c0 91 02 01 	lds	r28, 0x0102
    2658:	d0 91 03 01 	lds	r29, 0x0103
    265c:	ce 01       	movw	r24, r28
    265e:	04 96       	adiw	r24, 0x04	; 4
    2660:	0e 94 65 16 	call	0x2cca	; 0x2cca <__eerd_dword_m328p>
    2664:	9b 01       	movw	r18, r22
    2666:	ac 01       	movw	r20, r24
    2668:	c7 01       	movw	r24, r14
    266a:	b6 01       	movw	r22, r12
    266c:	0e 94 98 15 	call	0x2b30	; 0x2b30 <__gesf2>
    2670:	18 16       	cp	r1, r24
    2672:	64 f0       	brlt	.+24     	; 0x268c <interrupt_1ms+0x13e>
    2674:	ce 01       	movw	r24, r28
    2676:	0c 96       	adiw	r24, 0x0c	; 12
    2678:	0e 94 65 16 	call	0x2cca	; 0x2cca <__eerd_dword_m328p>
    267c:	9b 01       	movw	r18, r22
    267e:	ac 01       	movw	r20, r24
    2680:	c5 01       	movw	r24, r10
    2682:	b4 01       	movw	r22, r8
    2684:	0e 94 98 15 	call	0x2b30	; 0x2b30 <__gesf2>
    2688:	18 16       	cp	r1, r24
    268a:	14 f4       	brge	.+4      	; 0x2690 <interrupt_1ms+0x142>
			aquecedor_desligar();
    268c:	0e 94 7c 00 	call	0xf8	; 0xf8 <aquecedor_desligar>
		}
	}
}
    2690:	df 91       	pop	r29
    2692:	cf 91       	pop	r28
    2694:	ff 90       	pop	r15
    2696:	ef 90       	pop	r14
    2698:	df 90       	pop	r13
    269a:	cf 90       	pop	r12
    269c:	bf 90       	pop	r11
    269e:	af 90       	pop	r10
    26a0:	9f 90       	pop	r9
    26a2:	8f 90       	pop	r8
    26a4:	08 95       	ret

000026a6 <__vector_9>:
}
void interrupt_1ms(); //Para fins de leitura (e nao ter ponteiros de funcoes), função definida em menus.h
ISR(TIMER2_OVF_vect){
    26a6:	1f 92       	push	r1
    26a8:	0f 92       	push	r0
    26aa:	0f b6       	in	r0, 0x3f	; 63
    26ac:	0f 92       	push	r0
    26ae:	11 24       	eor	r1, r1
    26b0:	2f 93       	push	r18
    26b2:	3f 93       	push	r19
    26b4:	4f 93       	push	r20
    26b6:	5f 93       	push	r21
    26b8:	6f 93       	push	r22
    26ba:	7f 93       	push	r23
    26bc:	8f 93       	push	r24
    26be:	9f 93       	push	r25
    26c0:	af 93       	push	r26
    26c2:	bf 93       	push	r27
    26c4:	ef 93       	push	r30
    26c6:	ff 93       	push	r31
	MILLIS++;
    26c8:	80 91 2d 06 	lds	r24, 0x062D
    26cc:	90 91 2e 06 	lds	r25, 0x062E
    26d0:	a0 91 2f 06 	lds	r26, 0x062F
    26d4:	b0 91 30 06 	lds	r27, 0x0630
    26d8:	01 96       	adiw	r24, 0x01	; 1
    26da:	a1 1d       	adc	r26, r1
    26dc:	b1 1d       	adc	r27, r1
    26de:	80 93 2d 06 	sts	0x062D, r24
    26e2:	90 93 2e 06 	sts	0x062E, r25
    26e6:	a0 93 2f 06 	sts	0x062F, r26
    26ea:	b0 93 30 06 	sts	0x0630, r27
	MILLIS_TOPPED++;
    26ee:	80 91 2b 06 	lds	r24, 0x062B
    26f2:	90 91 2c 06 	lds	r25, 0x062C
    26f6:	01 96       	adiw	r24, 0x01	; 1
	if(MILLIS_TOPPED>=1000){
    26f8:	88 3e       	cpi	r24, 0xE8	; 232
    26fa:	23 e0       	ldi	r18, 0x03	; 3
    26fc:	92 07       	cpc	r25, r18
    26fe:	2c f4       	brge	.+10     	; 0x270a <__vector_9+0x64>
	MILLIS_TOPPED = 0;
}
void interrupt_1ms(); //Para fins de leitura (e nao ter ponteiros de funcoes), função definida em menus.h
ISR(TIMER2_OVF_vect){
	MILLIS++;
	MILLIS_TOPPED++;
    2700:	90 93 2c 06 	sts	0x062C, r25
    2704:	80 93 2b 06 	sts	0x062B, r24
    2708:	17 c0       	rjmp	.+46     	; 0x2738 <__vector_9+0x92>
	if(MILLIS_TOPPED>=1000){
		MILLIS_TOPPED = 0;
    270a:	10 92 2c 06 	sts	0x062C, r1
    270e:	10 92 2b 06 	sts	0x062B, r1
		SEGUNDOS++;
    2712:	80 91 db 06 	lds	r24, 0x06DB
    2716:	90 91 dc 06 	lds	r25, 0x06DC
    271a:	a0 91 dd 06 	lds	r26, 0x06DD
    271e:	b0 91 de 06 	lds	r27, 0x06DE
    2722:	01 96       	adiw	r24, 0x01	; 1
    2724:	a1 1d       	adc	r26, r1
    2726:	b1 1d       	adc	r27, r1
    2728:	80 93 db 06 	sts	0x06DB, r24
    272c:	90 93 dc 06 	sts	0x06DC, r25
    2730:	a0 93 dd 06 	sts	0x06DD, r26
    2734:	b0 93 de 06 	sts	0x06DE, r27
	}
	interrupt_1ms();
    2738:	0e 94 a7 12 	call	0x254e	; 0x254e <interrupt_1ms>
}
    273c:	ff 91       	pop	r31
    273e:	ef 91       	pop	r30
    2740:	bf 91       	pop	r27
    2742:	af 91       	pop	r26
    2744:	9f 91       	pop	r25
    2746:	8f 91       	pop	r24
    2748:	7f 91       	pop	r23
    274a:	6f 91       	pop	r22
    274c:	5f 91       	pop	r21
    274e:	4f 91       	pop	r20
    2750:	3f 91       	pop	r19
    2752:	2f 91       	pop	r18
    2754:	0f 90       	pop	r0
    2756:	0f be       	out	0x3f, r0	; 63
    2758:	0f 90       	pop	r0
    275a:	1f 90       	pop	r1
    275c:	18 95       	reti

0000275e <main>:
#include "menus.h"



int main(void){
	init_interfaces();
    275e:	0e 94 8d 00 	call	0x11a	; 0x11a <init_interfaces>
	lcd_init();
    2762:	0e 94 39 02 	call	0x472	; 0x472 <lcd_init>
	relogio_init();
    2766:	0e 94 18 07 	call	0xe30	; 0xe30 <relogio_init>
	inicializar_calibracao();
    276a:	0e 94 a7 09 	call	0x134e	; 0x134e <inicializar_calibracao>
	//lcd_set_mensagem(1,0,6,"Favor entrar com valor para ser guardado");
    while(1){
		int selecao = menu_principal();
    276e:	0e 94 a5 0a 	call	0x154a	; 0x154a <menu_principal>
		switch(selecao){
    2772:	83 30       	cpi	r24, 0x03	; 3
    2774:	91 05       	cpc	r25, r1
    2776:	c1 f0       	breq	.+48     	; 0x27a8 <main+0x4a>
    2778:	3c f4       	brge	.+14     	; 0x2788 <main+0x2a>
    277a:	81 30       	cpi	r24, 0x01	; 1
    277c:	91 05       	cpc	r25, r1
    277e:	71 f0       	breq	.+28     	; 0x279c <main+0x3e>
    2780:	84 f4       	brge	.+32     	; 0x27a2 <main+0x44>
    2782:	89 2b       	or	r24, r25
    2784:	41 f0       	breq	.+16     	; 0x2796 <main+0x38>
    2786:	f3 cf       	rjmp	.-26     	; 0x276e <main+0x10>
    2788:	85 30       	cpi	r24, 0x05	; 5
    278a:	91 05       	cpc	r25, r1
    278c:	99 f0       	breq	.+38     	; 0x27b4 <main+0x56>
    278e:	7c f0       	brlt	.+30     	; 0x27ae <main+0x50>
    2790:	06 97       	sbiw	r24, 0x06	; 6
    2792:	69 f7       	brne	.-38     	; 0x276e <main+0x10>
    2794:	14 c0       	rjmp	.+40     	; 0x27be <main+0x60>
			case 0: menu_corroer_placa(); break;
    2796:	0e 94 0f 0b 	call	0x161e	; 0x161e <menu_corroer_placa>
    279a:	e9 cf       	rjmp	.-46     	; 0x276e <main+0x10>
			case 1: menu_liga_aquecedor(); break;
    279c:	0e 94 63 0d 	call	0x1ac6	; 0x1ac6 <menu_liga_aquecedor>
    27a0:	e6 cf       	rjmp	.-52     	; 0x276e <main+0x10>
			case 2: menu_subir_suporte(); break;
    27a2:	0e 94 a3 0d 	call	0x1b46	; 0x1b46 <menu_subir_suporte>
    27a6:	e3 cf       	rjmp	.-58     	; 0x276e <main+0x10>
			case 3: menu_info_temperatura(); break;
    27a8:	0e 94 93 11 	call	0x2326	; 0x2326 <menu_info_temperatura>
    27ac:	e0 cf       	rjmp	.-64     	; 0x276e <main+0x10>
			case 4: menu_temperaturas(); break;
    27ae:	0e 94 d0 10 	call	0x21a0	; 0x21a0 <menu_temperaturas>
    27b2:	dd cf       	rjmp	.-70     	; 0x276e <main+0x10>
			case 5: menu_calibrar_termometro(0); break;
    27b4:	80 e0       	ldi	r24, 0x00	; 0
    27b6:	90 e0       	ldi	r25, 0x00	; 0
    27b8:	0e 94 e8 0d 	call	0x1bd0	; 0x1bd0 <menu_calibrar_termometro>
    27bc:	d8 cf       	rjmp	.-80     	; 0x276e <main+0x10>
			case 6: menu_calibrar_termometro(1); break;
    27be:	81 e0       	ldi	r24, 0x01	; 1
    27c0:	90 e0       	ldi	r25, 0x00	; 0
    27c2:	0e 94 e8 0d 	call	0x1bd0	; 0x1bd0 <menu_calibrar_termometro>
    27c6:	d3 cf       	rjmp	.-90     	; 0x276e <main+0x10>

000027c8 <__subsf3>:
    27c8:	50 58       	subi	r21, 0x80	; 128

000027ca <__addsf3>:
    27ca:	bb 27       	eor	r27, r27
    27cc:	aa 27       	eor	r26, r26
    27ce:	0e d0       	rcall	.+28     	; 0x27ec <__addsf3x>
    27d0:	75 c1       	rjmp	.+746    	; 0x2abc <__fp_round>
    27d2:	66 d1       	rcall	.+716    	; 0x2aa0 <__fp_pscA>
    27d4:	30 f0       	brcs	.+12     	; 0x27e2 <__addsf3+0x18>
    27d6:	6b d1       	rcall	.+726    	; 0x2aae <__fp_pscB>
    27d8:	20 f0       	brcs	.+8      	; 0x27e2 <__addsf3+0x18>
    27da:	31 f4       	brne	.+12     	; 0x27e8 <__addsf3+0x1e>
    27dc:	9f 3f       	cpi	r25, 0xFF	; 255
    27de:	11 f4       	brne	.+4      	; 0x27e4 <__addsf3+0x1a>
    27e0:	1e f4       	brtc	.+6      	; 0x27e8 <__addsf3+0x1e>
    27e2:	5b c1       	rjmp	.+694    	; 0x2a9a <__fp_nan>
    27e4:	0e f4       	brtc	.+2      	; 0x27e8 <__addsf3+0x1e>
    27e6:	e0 95       	com	r30
    27e8:	e7 fb       	bst	r30, 7
    27ea:	51 c1       	rjmp	.+674    	; 0x2a8e <__fp_inf>

000027ec <__addsf3x>:
    27ec:	e9 2f       	mov	r30, r25
    27ee:	77 d1       	rcall	.+750    	; 0x2ade <__fp_split3>
    27f0:	80 f3       	brcs	.-32     	; 0x27d2 <__addsf3+0x8>
    27f2:	ba 17       	cp	r27, r26
    27f4:	62 07       	cpc	r22, r18
    27f6:	73 07       	cpc	r23, r19
    27f8:	84 07       	cpc	r24, r20
    27fa:	95 07       	cpc	r25, r21
    27fc:	18 f0       	brcs	.+6      	; 0x2804 <__addsf3x+0x18>
    27fe:	71 f4       	brne	.+28     	; 0x281c <__addsf3x+0x30>
    2800:	9e f5       	brtc	.+102    	; 0x2868 <__addsf3x+0x7c>
    2802:	8f c1       	rjmp	.+798    	; 0x2b22 <__fp_zero>
    2804:	0e f4       	brtc	.+2      	; 0x2808 <__addsf3x+0x1c>
    2806:	e0 95       	com	r30
    2808:	0b 2e       	mov	r0, r27
    280a:	ba 2f       	mov	r27, r26
    280c:	a0 2d       	mov	r26, r0
    280e:	0b 01       	movw	r0, r22
    2810:	b9 01       	movw	r22, r18
    2812:	90 01       	movw	r18, r0
    2814:	0c 01       	movw	r0, r24
    2816:	ca 01       	movw	r24, r20
    2818:	a0 01       	movw	r20, r0
    281a:	11 24       	eor	r1, r1
    281c:	ff 27       	eor	r31, r31
    281e:	59 1b       	sub	r21, r25
    2820:	99 f0       	breq	.+38     	; 0x2848 <__addsf3x+0x5c>
    2822:	59 3f       	cpi	r21, 0xF9	; 249
    2824:	50 f4       	brcc	.+20     	; 0x283a <__addsf3x+0x4e>
    2826:	50 3e       	cpi	r21, 0xE0	; 224
    2828:	68 f1       	brcs	.+90     	; 0x2884 <__addsf3x+0x98>
    282a:	1a 16       	cp	r1, r26
    282c:	f0 40       	sbci	r31, 0x00	; 0
    282e:	a2 2f       	mov	r26, r18
    2830:	23 2f       	mov	r18, r19
    2832:	34 2f       	mov	r19, r20
    2834:	44 27       	eor	r20, r20
    2836:	58 5f       	subi	r21, 0xF8	; 248
    2838:	f3 cf       	rjmp	.-26     	; 0x2820 <__addsf3x+0x34>
    283a:	46 95       	lsr	r20
    283c:	37 95       	ror	r19
    283e:	27 95       	ror	r18
    2840:	a7 95       	ror	r26
    2842:	f0 40       	sbci	r31, 0x00	; 0
    2844:	53 95       	inc	r21
    2846:	c9 f7       	brne	.-14     	; 0x283a <__addsf3x+0x4e>
    2848:	7e f4       	brtc	.+30     	; 0x2868 <__addsf3x+0x7c>
    284a:	1f 16       	cp	r1, r31
    284c:	ba 0b       	sbc	r27, r26
    284e:	62 0b       	sbc	r22, r18
    2850:	73 0b       	sbc	r23, r19
    2852:	84 0b       	sbc	r24, r20
    2854:	ba f0       	brmi	.+46     	; 0x2884 <__addsf3x+0x98>
    2856:	91 50       	subi	r25, 0x01	; 1
    2858:	a1 f0       	breq	.+40     	; 0x2882 <__addsf3x+0x96>
    285a:	ff 0f       	add	r31, r31
    285c:	bb 1f       	adc	r27, r27
    285e:	66 1f       	adc	r22, r22
    2860:	77 1f       	adc	r23, r23
    2862:	88 1f       	adc	r24, r24
    2864:	c2 f7       	brpl	.-16     	; 0x2856 <__addsf3x+0x6a>
    2866:	0e c0       	rjmp	.+28     	; 0x2884 <__addsf3x+0x98>
    2868:	ba 0f       	add	r27, r26
    286a:	62 1f       	adc	r22, r18
    286c:	73 1f       	adc	r23, r19
    286e:	84 1f       	adc	r24, r20
    2870:	48 f4       	brcc	.+18     	; 0x2884 <__addsf3x+0x98>
    2872:	87 95       	ror	r24
    2874:	77 95       	ror	r23
    2876:	67 95       	ror	r22
    2878:	b7 95       	ror	r27
    287a:	f7 95       	ror	r31
    287c:	9e 3f       	cpi	r25, 0xFE	; 254
    287e:	08 f0       	brcs	.+2      	; 0x2882 <__addsf3x+0x96>
    2880:	b3 cf       	rjmp	.-154    	; 0x27e8 <__addsf3+0x1e>
    2882:	93 95       	inc	r25
    2884:	88 0f       	add	r24, r24
    2886:	08 f0       	brcs	.+2      	; 0x288a <__addsf3x+0x9e>
    2888:	99 27       	eor	r25, r25
    288a:	ee 0f       	add	r30, r30
    288c:	97 95       	ror	r25
    288e:	87 95       	ror	r24
    2890:	08 95       	ret

00002892 <__cmpsf2>:
    2892:	d9 d0       	rcall	.+434    	; 0x2a46 <__fp_cmp>
    2894:	08 f4       	brcc	.+2      	; 0x2898 <__cmpsf2+0x6>
    2896:	81 e0       	ldi	r24, 0x01	; 1
    2898:	08 95       	ret

0000289a <__divsf3>:
    289a:	0c d0       	rcall	.+24     	; 0x28b4 <__divsf3x>
    289c:	0f c1       	rjmp	.+542    	; 0x2abc <__fp_round>
    289e:	07 d1       	rcall	.+526    	; 0x2aae <__fp_pscB>
    28a0:	40 f0       	brcs	.+16     	; 0x28b2 <__divsf3+0x18>
    28a2:	fe d0       	rcall	.+508    	; 0x2aa0 <__fp_pscA>
    28a4:	30 f0       	brcs	.+12     	; 0x28b2 <__divsf3+0x18>
    28a6:	21 f4       	brne	.+8      	; 0x28b0 <__divsf3+0x16>
    28a8:	5f 3f       	cpi	r21, 0xFF	; 255
    28aa:	19 f0       	breq	.+6      	; 0x28b2 <__divsf3+0x18>
    28ac:	f0 c0       	rjmp	.+480    	; 0x2a8e <__fp_inf>
    28ae:	51 11       	cpse	r21, r1
    28b0:	39 c1       	rjmp	.+626    	; 0x2b24 <__fp_szero>
    28b2:	f3 c0       	rjmp	.+486    	; 0x2a9a <__fp_nan>

000028b4 <__divsf3x>:
    28b4:	14 d1       	rcall	.+552    	; 0x2ade <__fp_split3>
    28b6:	98 f3       	brcs	.-26     	; 0x289e <__divsf3+0x4>

000028b8 <__divsf3_pse>:
    28b8:	99 23       	and	r25, r25
    28ba:	c9 f3       	breq	.-14     	; 0x28ae <__divsf3+0x14>
    28bc:	55 23       	and	r21, r21
    28be:	b1 f3       	breq	.-20     	; 0x28ac <__divsf3+0x12>
    28c0:	95 1b       	sub	r25, r21
    28c2:	55 0b       	sbc	r21, r21
    28c4:	bb 27       	eor	r27, r27
    28c6:	aa 27       	eor	r26, r26
    28c8:	62 17       	cp	r22, r18
    28ca:	73 07       	cpc	r23, r19
    28cc:	84 07       	cpc	r24, r20
    28ce:	38 f0       	brcs	.+14     	; 0x28de <__divsf3_pse+0x26>
    28d0:	9f 5f       	subi	r25, 0xFF	; 255
    28d2:	5f 4f       	sbci	r21, 0xFF	; 255
    28d4:	22 0f       	add	r18, r18
    28d6:	33 1f       	adc	r19, r19
    28d8:	44 1f       	adc	r20, r20
    28da:	aa 1f       	adc	r26, r26
    28dc:	a9 f3       	breq	.-22     	; 0x28c8 <__divsf3_pse+0x10>
    28de:	33 d0       	rcall	.+102    	; 0x2946 <__divsf3_pse+0x8e>
    28e0:	0e 2e       	mov	r0, r30
    28e2:	3a f0       	brmi	.+14     	; 0x28f2 <__divsf3_pse+0x3a>
    28e4:	e0 e8       	ldi	r30, 0x80	; 128
    28e6:	30 d0       	rcall	.+96     	; 0x2948 <__divsf3_pse+0x90>
    28e8:	91 50       	subi	r25, 0x01	; 1
    28ea:	50 40       	sbci	r21, 0x00	; 0
    28ec:	e6 95       	lsr	r30
    28ee:	00 1c       	adc	r0, r0
    28f0:	ca f7       	brpl	.-14     	; 0x28e4 <__divsf3_pse+0x2c>
    28f2:	29 d0       	rcall	.+82     	; 0x2946 <__divsf3_pse+0x8e>
    28f4:	fe 2f       	mov	r31, r30
    28f6:	27 d0       	rcall	.+78     	; 0x2946 <__divsf3_pse+0x8e>
    28f8:	66 0f       	add	r22, r22
    28fa:	77 1f       	adc	r23, r23
    28fc:	88 1f       	adc	r24, r24
    28fe:	bb 1f       	adc	r27, r27
    2900:	26 17       	cp	r18, r22
    2902:	37 07       	cpc	r19, r23
    2904:	48 07       	cpc	r20, r24
    2906:	ab 07       	cpc	r26, r27
    2908:	b0 e8       	ldi	r27, 0x80	; 128
    290a:	09 f0       	breq	.+2      	; 0x290e <__divsf3_pse+0x56>
    290c:	bb 0b       	sbc	r27, r27
    290e:	80 2d       	mov	r24, r0
    2910:	bf 01       	movw	r22, r30
    2912:	ff 27       	eor	r31, r31
    2914:	93 58       	subi	r25, 0x83	; 131
    2916:	5f 4f       	sbci	r21, 0xFF	; 255
    2918:	2a f0       	brmi	.+10     	; 0x2924 <__divsf3_pse+0x6c>
    291a:	9e 3f       	cpi	r25, 0xFE	; 254
    291c:	51 05       	cpc	r21, r1
    291e:	68 f0       	brcs	.+26     	; 0x293a <__divsf3_pse+0x82>
    2920:	b6 c0       	rjmp	.+364    	; 0x2a8e <__fp_inf>
    2922:	00 c1       	rjmp	.+512    	; 0x2b24 <__fp_szero>
    2924:	5f 3f       	cpi	r21, 0xFF	; 255
    2926:	ec f3       	brlt	.-6      	; 0x2922 <__divsf3_pse+0x6a>
    2928:	98 3e       	cpi	r25, 0xE8	; 232
    292a:	dc f3       	brlt	.-10     	; 0x2922 <__divsf3_pse+0x6a>
    292c:	86 95       	lsr	r24
    292e:	77 95       	ror	r23
    2930:	67 95       	ror	r22
    2932:	b7 95       	ror	r27
    2934:	f7 95       	ror	r31
    2936:	9f 5f       	subi	r25, 0xFF	; 255
    2938:	c9 f7       	brne	.-14     	; 0x292c <__divsf3_pse+0x74>
    293a:	88 0f       	add	r24, r24
    293c:	91 1d       	adc	r25, r1
    293e:	96 95       	lsr	r25
    2940:	87 95       	ror	r24
    2942:	97 f9       	bld	r25, 7
    2944:	08 95       	ret
    2946:	e1 e0       	ldi	r30, 0x01	; 1
    2948:	66 0f       	add	r22, r22
    294a:	77 1f       	adc	r23, r23
    294c:	88 1f       	adc	r24, r24
    294e:	bb 1f       	adc	r27, r27
    2950:	62 17       	cp	r22, r18
    2952:	73 07       	cpc	r23, r19
    2954:	84 07       	cpc	r24, r20
    2956:	ba 07       	cpc	r27, r26
    2958:	20 f0       	brcs	.+8      	; 0x2962 <__divsf3_pse+0xaa>
    295a:	62 1b       	sub	r22, r18
    295c:	73 0b       	sbc	r23, r19
    295e:	84 0b       	sbc	r24, r20
    2960:	ba 0b       	sbc	r27, r26
    2962:	ee 1f       	adc	r30, r30
    2964:	88 f7       	brcc	.-30     	; 0x2948 <__divsf3_pse+0x90>
    2966:	e0 95       	com	r30
    2968:	08 95       	ret

0000296a <__fixsfsi>:
    296a:	04 d0       	rcall	.+8      	; 0x2974 <__fixunssfsi>
    296c:	68 94       	set
    296e:	b1 11       	cpse	r27, r1
    2970:	d9 c0       	rjmp	.+434    	; 0x2b24 <__fp_szero>
    2972:	08 95       	ret

00002974 <__fixunssfsi>:
    2974:	bc d0       	rcall	.+376    	; 0x2aee <__fp_splitA>
    2976:	88 f0       	brcs	.+34     	; 0x299a <__fixunssfsi+0x26>
    2978:	9f 57       	subi	r25, 0x7F	; 127
    297a:	90 f0       	brcs	.+36     	; 0x29a0 <__fixunssfsi+0x2c>
    297c:	b9 2f       	mov	r27, r25
    297e:	99 27       	eor	r25, r25
    2980:	b7 51       	subi	r27, 0x17	; 23
    2982:	a0 f0       	brcs	.+40     	; 0x29ac <__fixunssfsi+0x38>
    2984:	d1 f0       	breq	.+52     	; 0x29ba <__fixunssfsi+0x46>
    2986:	66 0f       	add	r22, r22
    2988:	77 1f       	adc	r23, r23
    298a:	88 1f       	adc	r24, r24
    298c:	99 1f       	adc	r25, r25
    298e:	1a f0       	brmi	.+6      	; 0x2996 <__fixunssfsi+0x22>
    2990:	ba 95       	dec	r27
    2992:	c9 f7       	brne	.-14     	; 0x2986 <__fixunssfsi+0x12>
    2994:	12 c0       	rjmp	.+36     	; 0x29ba <__fixunssfsi+0x46>
    2996:	b1 30       	cpi	r27, 0x01	; 1
    2998:	81 f0       	breq	.+32     	; 0x29ba <__fixunssfsi+0x46>
    299a:	c3 d0       	rcall	.+390    	; 0x2b22 <__fp_zero>
    299c:	b1 e0       	ldi	r27, 0x01	; 1
    299e:	08 95       	ret
    29a0:	c0 c0       	rjmp	.+384    	; 0x2b22 <__fp_zero>
    29a2:	67 2f       	mov	r22, r23
    29a4:	78 2f       	mov	r23, r24
    29a6:	88 27       	eor	r24, r24
    29a8:	b8 5f       	subi	r27, 0xF8	; 248
    29aa:	39 f0       	breq	.+14     	; 0x29ba <__fixunssfsi+0x46>
    29ac:	b9 3f       	cpi	r27, 0xF9	; 249
    29ae:	cc f3       	brlt	.-14     	; 0x29a2 <__fixunssfsi+0x2e>
    29b0:	86 95       	lsr	r24
    29b2:	77 95       	ror	r23
    29b4:	67 95       	ror	r22
    29b6:	b3 95       	inc	r27
    29b8:	d9 f7       	brne	.-10     	; 0x29b0 <__fixunssfsi+0x3c>
    29ba:	3e f4       	brtc	.+14     	; 0x29ca <__fixunssfsi+0x56>
    29bc:	90 95       	com	r25
    29be:	80 95       	com	r24
    29c0:	70 95       	com	r23
    29c2:	61 95       	neg	r22
    29c4:	7f 4f       	sbci	r23, 0xFF	; 255
    29c6:	8f 4f       	sbci	r24, 0xFF	; 255
    29c8:	9f 4f       	sbci	r25, 0xFF	; 255
    29ca:	08 95       	ret

000029cc <__floatunsisf>:
    29cc:	e8 94       	clt
    29ce:	09 c0       	rjmp	.+18     	; 0x29e2 <__floatsisf+0x12>

000029d0 <__floatsisf>:
    29d0:	97 fb       	bst	r25, 7
    29d2:	3e f4       	brtc	.+14     	; 0x29e2 <__floatsisf+0x12>
    29d4:	90 95       	com	r25
    29d6:	80 95       	com	r24
    29d8:	70 95       	com	r23
    29da:	61 95       	neg	r22
    29dc:	7f 4f       	sbci	r23, 0xFF	; 255
    29de:	8f 4f       	sbci	r24, 0xFF	; 255
    29e0:	9f 4f       	sbci	r25, 0xFF	; 255
    29e2:	99 23       	and	r25, r25
    29e4:	a9 f0       	breq	.+42     	; 0x2a10 <__floatsisf+0x40>
    29e6:	f9 2f       	mov	r31, r25
    29e8:	96 e9       	ldi	r25, 0x96	; 150
    29ea:	bb 27       	eor	r27, r27
    29ec:	93 95       	inc	r25
    29ee:	f6 95       	lsr	r31
    29f0:	87 95       	ror	r24
    29f2:	77 95       	ror	r23
    29f4:	67 95       	ror	r22
    29f6:	b7 95       	ror	r27
    29f8:	f1 11       	cpse	r31, r1
    29fa:	f8 cf       	rjmp	.-16     	; 0x29ec <__floatsisf+0x1c>
    29fc:	fa f4       	brpl	.+62     	; 0x2a3c <__floatsisf+0x6c>
    29fe:	bb 0f       	add	r27, r27
    2a00:	11 f4       	brne	.+4      	; 0x2a06 <__floatsisf+0x36>
    2a02:	60 ff       	sbrs	r22, 0
    2a04:	1b c0       	rjmp	.+54     	; 0x2a3c <__floatsisf+0x6c>
    2a06:	6f 5f       	subi	r22, 0xFF	; 255
    2a08:	7f 4f       	sbci	r23, 0xFF	; 255
    2a0a:	8f 4f       	sbci	r24, 0xFF	; 255
    2a0c:	9f 4f       	sbci	r25, 0xFF	; 255
    2a0e:	16 c0       	rjmp	.+44     	; 0x2a3c <__floatsisf+0x6c>
    2a10:	88 23       	and	r24, r24
    2a12:	11 f0       	breq	.+4      	; 0x2a18 <__floatsisf+0x48>
    2a14:	96 e9       	ldi	r25, 0x96	; 150
    2a16:	11 c0       	rjmp	.+34     	; 0x2a3a <__floatsisf+0x6a>
    2a18:	77 23       	and	r23, r23
    2a1a:	21 f0       	breq	.+8      	; 0x2a24 <__floatsisf+0x54>
    2a1c:	9e e8       	ldi	r25, 0x8E	; 142
    2a1e:	87 2f       	mov	r24, r23
    2a20:	76 2f       	mov	r23, r22
    2a22:	05 c0       	rjmp	.+10     	; 0x2a2e <__floatsisf+0x5e>
    2a24:	66 23       	and	r22, r22
    2a26:	71 f0       	breq	.+28     	; 0x2a44 <__floatsisf+0x74>
    2a28:	96 e8       	ldi	r25, 0x86	; 134
    2a2a:	86 2f       	mov	r24, r22
    2a2c:	70 e0       	ldi	r23, 0x00	; 0
    2a2e:	60 e0       	ldi	r22, 0x00	; 0
    2a30:	2a f0       	brmi	.+10     	; 0x2a3c <__floatsisf+0x6c>
    2a32:	9a 95       	dec	r25
    2a34:	66 0f       	add	r22, r22
    2a36:	77 1f       	adc	r23, r23
    2a38:	88 1f       	adc	r24, r24
    2a3a:	da f7       	brpl	.-10     	; 0x2a32 <__floatsisf+0x62>
    2a3c:	88 0f       	add	r24, r24
    2a3e:	96 95       	lsr	r25
    2a40:	87 95       	ror	r24
    2a42:	97 f9       	bld	r25, 7
    2a44:	08 95       	ret

00002a46 <__fp_cmp>:
    2a46:	99 0f       	add	r25, r25
    2a48:	00 08       	sbc	r0, r0
    2a4a:	55 0f       	add	r21, r21
    2a4c:	aa 0b       	sbc	r26, r26
    2a4e:	e0 e8       	ldi	r30, 0x80	; 128
    2a50:	fe ef       	ldi	r31, 0xFE	; 254
    2a52:	16 16       	cp	r1, r22
    2a54:	17 06       	cpc	r1, r23
    2a56:	e8 07       	cpc	r30, r24
    2a58:	f9 07       	cpc	r31, r25
    2a5a:	c0 f0       	brcs	.+48     	; 0x2a8c <__fp_cmp+0x46>
    2a5c:	12 16       	cp	r1, r18
    2a5e:	13 06       	cpc	r1, r19
    2a60:	e4 07       	cpc	r30, r20
    2a62:	f5 07       	cpc	r31, r21
    2a64:	98 f0       	brcs	.+38     	; 0x2a8c <__fp_cmp+0x46>
    2a66:	62 1b       	sub	r22, r18
    2a68:	73 0b       	sbc	r23, r19
    2a6a:	84 0b       	sbc	r24, r20
    2a6c:	95 0b       	sbc	r25, r21
    2a6e:	39 f4       	brne	.+14     	; 0x2a7e <__fp_cmp+0x38>
    2a70:	0a 26       	eor	r0, r26
    2a72:	61 f0       	breq	.+24     	; 0x2a8c <__fp_cmp+0x46>
    2a74:	23 2b       	or	r18, r19
    2a76:	24 2b       	or	r18, r20
    2a78:	25 2b       	or	r18, r21
    2a7a:	21 f4       	brne	.+8      	; 0x2a84 <__fp_cmp+0x3e>
    2a7c:	08 95       	ret
    2a7e:	0a 26       	eor	r0, r26
    2a80:	09 f4       	brne	.+2      	; 0x2a84 <__fp_cmp+0x3e>
    2a82:	a1 40       	sbci	r26, 0x01	; 1
    2a84:	a6 95       	lsr	r26
    2a86:	8f ef       	ldi	r24, 0xFF	; 255
    2a88:	81 1d       	adc	r24, r1
    2a8a:	81 1d       	adc	r24, r1
    2a8c:	08 95       	ret

00002a8e <__fp_inf>:
    2a8e:	97 f9       	bld	r25, 7
    2a90:	9f 67       	ori	r25, 0x7F	; 127
    2a92:	80 e8       	ldi	r24, 0x80	; 128
    2a94:	70 e0       	ldi	r23, 0x00	; 0
    2a96:	60 e0       	ldi	r22, 0x00	; 0
    2a98:	08 95       	ret

00002a9a <__fp_nan>:
    2a9a:	9f ef       	ldi	r25, 0xFF	; 255
    2a9c:	80 ec       	ldi	r24, 0xC0	; 192
    2a9e:	08 95       	ret

00002aa0 <__fp_pscA>:
    2aa0:	00 24       	eor	r0, r0
    2aa2:	0a 94       	dec	r0
    2aa4:	16 16       	cp	r1, r22
    2aa6:	17 06       	cpc	r1, r23
    2aa8:	18 06       	cpc	r1, r24
    2aaa:	09 06       	cpc	r0, r25
    2aac:	08 95       	ret

00002aae <__fp_pscB>:
    2aae:	00 24       	eor	r0, r0
    2ab0:	0a 94       	dec	r0
    2ab2:	12 16       	cp	r1, r18
    2ab4:	13 06       	cpc	r1, r19
    2ab6:	14 06       	cpc	r1, r20
    2ab8:	05 06       	cpc	r0, r21
    2aba:	08 95       	ret

00002abc <__fp_round>:
    2abc:	09 2e       	mov	r0, r25
    2abe:	03 94       	inc	r0
    2ac0:	00 0c       	add	r0, r0
    2ac2:	11 f4       	brne	.+4      	; 0x2ac8 <__fp_round+0xc>
    2ac4:	88 23       	and	r24, r24
    2ac6:	52 f0       	brmi	.+20     	; 0x2adc <__fp_round+0x20>
    2ac8:	bb 0f       	add	r27, r27
    2aca:	40 f4       	brcc	.+16     	; 0x2adc <__fp_round+0x20>
    2acc:	bf 2b       	or	r27, r31
    2ace:	11 f4       	brne	.+4      	; 0x2ad4 <__fp_round+0x18>
    2ad0:	60 ff       	sbrs	r22, 0
    2ad2:	04 c0       	rjmp	.+8      	; 0x2adc <__fp_round+0x20>
    2ad4:	6f 5f       	subi	r22, 0xFF	; 255
    2ad6:	7f 4f       	sbci	r23, 0xFF	; 255
    2ad8:	8f 4f       	sbci	r24, 0xFF	; 255
    2ada:	9f 4f       	sbci	r25, 0xFF	; 255
    2adc:	08 95       	ret

00002ade <__fp_split3>:
    2ade:	57 fd       	sbrc	r21, 7
    2ae0:	90 58       	subi	r25, 0x80	; 128
    2ae2:	44 0f       	add	r20, r20
    2ae4:	55 1f       	adc	r21, r21
    2ae6:	59 f0       	breq	.+22     	; 0x2afe <__fp_splitA+0x10>
    2ae8:	5f 3f       	cpi	r21, 0xFF	; 255
    2aea:	71 f0       	breq	.+28     	; 0x2b08 <__fp_splitA+0x1a>
    2aec:	47 95       	ror	r20

00002aee <__fp_splitA>:
    2aee:	88 0f       	add	r24, r24
    2af0:	97 fb       	bst	r25, 7
    2af2:	99 1f       	adc	r25, r25
    2af4:	61 f0       	breq	.+24     	; 0x2b0e <__fp_splitA+0x20>
    2af6:	9f 3f       	cpi	r25, 0xFF	; 255
    2af8:	79 f0       	breq	.+30     	; 0x2b18 <__fp_splitA+0x2a>
    2afa:	87 95       	ror	r24
    2afc:	08 95       	ret
    2afe:	12 16       	cp	r1, r18
    2b00:	13 06       	cpc	r1, r19
    2b02:	14 06       	cpc	r1, r20
    2b04:	55 1f       	adc	r21, r21
    2b06:	f2 cf       	rjmp	.-28     	; 0x2aec <__fp_split3+0xe>
    2b08:	46 95       	lsr	r20
    2b0a:	f1 df       	rcall	.-30     	; 0x2aee <__fp_splitA>
    2b0c:	08 c0       	rjmp	.+16     	; 0x2b1e <__fp_splitA+0x30>
    2b0e:	16 16       	cp	r1, r22
    2b10:	17 06       	cpc	r1, r23
    2b12:	18 06       	cpc	r1, r24
    2b14:	99 1f       	adc	r25, r25
    2b16:	f1 cf       	rjmp	.-30     	; 0x2afa <__fp_splitA+0xc>
    2b18:	86 95       	lsr	r24
    2b1a:	71 05       	cpc	r23, r1
    2b1c:	61 05       	cpc	r22, r1
    2b1e:	08 94       	sec
    2b20:	08 95       	ret

00002b22 <__fp_zero>:
    2b22:	e8 94       	clt

00002b24 <__fp_szero>:
    2b24:	bb 27       	eor	r27, r27
    2b26:	66 27       	eor	r22, r22
    2b28:	77 27       	eor	r23, r23
    2b2a:	cb 01       	movw	r24, r22
    2b2c:	97 f9       	bld	r25, 7
    2b2e:	08 95       	ret

00002b30 <__gesf2>:
    2b30:	8a df       	rcall	.-236    	; 0x2a46 <__fp_cmp>
    2b32:	08 f4       	brcc	.+2      	; 0x2b36 <__gesf2+0x6>
    2b34:	8f ef       	ldi	r24, 0xFF	; 255
    2b36:	08 95       	ret

00002b38 <__mulsf3>:
    2b38:	0b d0       	rcall	.+22     	; 0x2b50 <__mulsf3x>
    2b3a:	c0 cf       	rjmp	.-128    	; 0x2abc <__fp_round>
    2b3c:	b1 df       	rcall	.-158    	; 0x2aa0 <__fp_pscA>
    2b3e:	28 f0       	brcs	.+10     	; 0x2b4a <__mulsf3+0x12>
    2b40:	b6 df       	rcall	.-148    	; 0x2aae <__fp_pscB>
    2b42:	18 f0       	brcs	.+6      	; 0x2b4a <__mulsf3+0x12>
    2b44:	95 23       	and	r25, r21
    2b46:	09 f0       	breq	.+2      	; 0x2b4a <__mulsf3+0x12>
    2b48:	a2 cf       	rjmp	.-188    	; 0x2a8e <__fp_inf>
    2b4a:	a7 cf       	rjmp	.-178    	; 0x2a9a <__fp_nan>
    2b4c:	11 24       	eor	r1, r1
    2b4e:	ea cf       	rjmp	.-44     	; 0x2b24 <__fp_szero>

00002b50 <__mulsf3x>:
    2b50:	c6 df       	rcall	.-116    	; 0x2ade <__fp_split3>
    2b52:	a0 f3       	brcs	.-24     	; 0x2b3c <__mulsf3+0x4>

00002b54 <__mulsf3_pse>:
    2b54:	95 9f       	mul	r25, r21
    2b56:	d1 f3       	breq	.-12     	; 0x2b4c <__mulsf3+0x14>
    2b58:	95 0f       	add	r25, r21
    2b5a:	50 e0       	ldi	r21, 0x00	; 0
    2b5c:	55 1f       	adc	r21, r21
    2b5e:	62 9f       	mul	r22, r18
    2b60:	f0 01       	movw	r30, r0
    2b62:	72 9f       	mul	r23, r18
    2b64:	bb 27       	eor	r27, r27
    2b66:	f0 0d       	add	r31, r0
    2b68:	b1 1d       	adc	r27, r1
    2b6a:	63 9f       	mul	r22, r19
    2b6c:	aa 27       	eor	r26, r26
    2b6e:	f0 0d       	add	r31, r0
    2b70:	b1 1d       	adc	r27, r1
    2b72:	aa 1f       	adc	r26, r26
    2b74:	64 9f       	mul	r22, r20
    2b76:	66 27       	eor	r22, r22
    2b78:	b0 0d       	add	r27, r0
    2b7a:	a1 1d       	adc	r26, r1
    2b7c:	66 1f       	adc	r22, r22
    2b7e:	82 9f       	mul	r24, r18
    2b80:	22 27       	eor	r18, r18
    2b82:	b0 0d       	add	r27, r0
    2b84:	a1 1d       	adc	r26, r1
    2b86:	62 1f       	adc	r22, r18
    2b88:	73 9f       	mul	r23, r19
    2b8a:	b0 0d       	add	r27, r0
    2b8c:	a1 1d       	adc	r26, r1
    2b8e:	62 1f       	adc	r22, r18
    2b90:	83 9f       	mul	r24, r19
    2b92:	a0 0d       	add	r26, r0
    2b94:	61 1d       	adc	r22, r1
    2b96:	22 1f       	adc	r18, r18
    2b98:	74 9f       	mul	r23, r20
    2b9a:	33 27       	eor	r19, r19
    2b9c:	a0 0d       	add	r26, r0
    2b9e:	61 1d       	adc	r22, r1
    2ba0:	23 1f       	adc	r18, r19
    2ba2:	84 9f       	mul	r24, r20
    2ba4:	60 0d       	add	r22, r0
    2ba6:	21 1d       	adc	r18, r1
    2ba8:	82 2f       	mov	r24, r18
    2baa:	76 2f       	mov	r23, r22
    2bac:	6a 2f       	mov	r22, r26
    2bae:	11 24       	eor	r1, r1
    2bb0:	9f 57       	subi	r25, 0x7F	; 127
    2bb2:	50 40       	sbci	r21, 0x00	; 0
    2bb4:	8a f0       	brmi	.+34     	; 0x2bd8 <__mulsf3_pse+0x84>
    2bb6:	e1 f0       	breq	.+56     	; 0x2bf0 <__mulsf3_pse+0x9c>
    2bb8:	88 23       	and	r24, r24
    2bba:	4a f0       	brmi	.+18     	; 0x2bce <__mulsf3_pse+0x7a>
    2bbc:	ee 0f       	add	r30, r30
    2bbe:	ff 1f       	adc	r31, r31
    2bc0:	bb 1f       	adc	r27, r27
    2bc2:	66 1f       	adc	r22, r22
    2bc4:	77 1f       	adc	r23, r23
    2bc6:	88 1f       	adc	r24, r24
    2bc8:	91 50       	subi	r25, 0x01	; 1
    2bca:	50 40       	sbci	r21, 0x00	; 0
    2bcc:	a9 f7       	brne	.-22     	; 0x2bb8 <__mulsf3_pse+0x64>
    2bce:	9e 3f       	cpi	r25, 0xFE	; 254
    2bd0:	51 05       	cpc	r21, r1
    2bd2:	70 f0       	brcs	.+28     	; 0x2bf0 <__mulsf3_pse+0x9c>
    2bd4:	5c cf       	rjmp	.-328    	; 0x2a8e <__fp_inf>
    2bd6:	a6 cf       	rjmp	.-180    	; 0x2b24 <__fp_szero>
    2bd8:	5f 3f       	cpi	r21, 0xFF	; 255
    2bda:	ec f3       	brlt	.-6      	; 0x2bd6 <__mulsf3_pse+0x82>
    2bdc:	98 3e       	cpi	r25, 0xE8	; 232
    2bde:	dc f3       	brlt	.-10     	; 0x2bd6 <__mulsf3_pse+0x82>
    2be0:	86 95       	lsr	r24
    2be2:	77 95       	ror	r23
    2be4:	67 95       	ror	r22
    2be6:	b7 95       	ror	r27
    2be8:	f7 95       	ror	r31
    2bea:	e7 95       	ror	r30
    2bec:	9f 5f       	subi	r25, 0xFF	; 255
    2bee:	c1 f7       	brne	.-16     	; 0x2be0 <__mulsf3_pse+0x8c>
    2bf0:	fe 2b       	or	r31, r30
    2bf2:	88 0f       	add	r24, r24
    2bf4:	91 1d       	adc	r25, r1
    2bf6:	96 95       	lsr	r25
    2bf8:	87 95       	ror	r24
    2bfa:	97 f9       	bld	r25, 7
    2bfc:	08 95       	ret

00002bfe <__divmodhi4>:
    2bfe:	97 fb       	bst	r25, 7
    2c00:	07 2e       	mov	r0, r23
    2c02:	16 f4       	brtc	.+4      	; 0x2c08 <__divmodhi4+0xa>
    2c04:	00 94       	com	r0
    2c06:	07 d0       	rcall	.+14     	; 0x2c16 <__divmodhi4_neg1>
    2c08:	77 fd       	sbrc	r23, 7
    2c0a:	09 d0       	rcall	.+18     	; 0x2c1e <__divmodhi4_neg2>
    2c0c:	0e 94 2f 16 	call	0x2c5e	; 0x2c5e <__udivmodhi4>
    2c10:	07 fc       	sbrc	r0, 7
    2c12:	05 d0       	rcall	.+10     	; 0x2c1e <__divmodhi4_neg2>
    2c14:	3e f4       	brtc	.+14     	; 0x2c24 <__divmodhi4_exit>

00002c16 <__divmodhi4_neg1>:
    2c16:	90 95       	com	r25
    2c18:	81 95       	neg	r24
    2c1a:	9f 4f       	sbci	r25, 0xFF	; 255
    2c1c:	08 95       	ret

00002c1e <__divmodhi4_neg2>:
    2c1e:	70 95       	com	r23
    2c20:	61 95       	neg	r22
    2c22:	7f 4f       	sbci	r23, 0xFF	; 255

00002c24 <__divmodhi4_exit>:
    2c24:	08 95       	ret

00002c26 <__divmodsi4>:
    2c26:	05 2e       	mov	r0, r21
    2c28:	97 fb       	bst	r25, 7
    2c2a:	16 f4       	brtc	.+4      	; 0x2c30 <__divmodsi4+0xa>
    2c2c:	00 94       	com	r0
    2c2e:	07 d0       	rcall	.+14     	; 0x2c3e <__divmodsi4_neg1>
    2c30:	57 fd       	sbrc	r21, 7
    2c32:	0d d0       	rcall	.+26     	; 0x2c4e <__divmodsi4_neg2>
    2c34:	0e 94 43 16 	call	0x2c86	; 0x2c86 <__udivmodsi4>
    2c38:	07 fc       	sbrc	r0, 7
    2c3a:	09 d0       	rcall	.+18     	; 0x2c4e <__divmodsi4_neg2>
    2c3c:	7e f4       	brtc	.+30     	; 0x2c5c <__divmodsi4_exit>

00002c3e <__divmodsi4_neg1>:
    2c3e:	90 95       	com	r25
    2c40:	80 95       	com	r24
    2c42:	70 95       	com	r23
    2c44:	61 95       	neg	r22
    2c46:	7f 4f       	sbci	r23, 0xFF	; 255
    2c48:	8f 4f       	sbci	r24, 0xFF	; 255
    2c4a:	9f 4f       	sbci	r25, 0xFF	; 255
    2c4c:	08 95       	ret

00002c4e <__divmodsi4_neg2>:
    2c4e:	50 95       	com	r21
    2c50:	40 95       	com	r20
    2c52:	30 95       	com	r19
    2c54:	21 95       	neg	r18
    2c56:	3f 4f       	sbci	r19, 0xFF	; 255
    2c58:	4f 4f       	sbci	r20, 0xFF	; 255
    2c5a:	5f 4f       	sbci	r21, 0xFF	; 255

00002c5c <__divmodsi4_exit>:
    2c5c:	08 95       	ret

00002c5e <__udivmodhi4>:
    2c5e:	aa 1b       	sub	r26, r26
    2c60:	bb 1b       	sub	r27, r27
    2c62:	51 e1       	ldi	r21, 0x11	; 17
    2c64:	07 c0       	rjmp	.+14     	; 0x2c74 <__udivmodhi4_ep>

00002c66 <__udivmodhi4_loop>:
    2c66:	aa 1f       	adc	r26, r26
    2c68:	bb 1f       	adc	r27, r27
    2c6a:	a6 17       	cp	r26, r22
    2c6c:	b7 07       	cpc	r27, r23
    2c6e:	10 f0       	brcs	.+4      	; 0x2c74 <__udivmodhi4_ep>
    2c70:	a6 1b       	sub	r26, r22
    2c72:	b7 0b       	sbc	r27, r23

00002c74 <__udivmodhi4_ep>:
    2c74:	88 1f       	adc	r24, r24
    2c76:	99 1f       	adc	r25, r25
    2c78:	5a 95       	dec	r21
    2c7a:	a9 f7       	brne	.-22     	; 0x2c66 <__udivmodhi4_loop>
    2c7c:	80 95       	com	r24
    2c7e:	90 95       	com	r25
    2c80:	bc 01       	movw	r22, r24
    2c82:	cd 01       	movw	r24, r26
    2c84:	08 95       	ret

00002c86 <__udivmodsi4>:
    2c86:	a1 e2       	ldi	r26, 0x21	; 33
    2c88:	1a 2e       	mov	r1, r26
    2c8a:	aa 1b       	sub	r26, r26
    2c8c:	bb 1b       	sub	r27, r27
    2c8e:	fd 01       	movw	r30, r26
    2c90:	0d c0       	rjmp	.+26     	; 0x2cac <__udivmodsi4_ep>

00002c92 <__udivmodsi4_loop>:
    2c92:	aa 1f       	adc	r26, r26
    2c94:	bb 1f       	adc	r27, r27
    2c96:	ee 1f       	adc	r30, r30
    2c98:	ff 1f       	adc	r31, r31
    2c9a:	a2 17       	cp	r26, r18
    2c9c:	b3 07       	cpc	r27, r19
    2c9e:	e4 07       	cpc	r30, r20
    2ca0:	f5 07       	cpc	r31, r21
    2ca2:	20 f0       	brcs	.+8      	; 0x2cac <__udivmodsi4_ep>
    2ca4:	a2 1b       	sub	r26, r18
    2ca6:	b3 0b       	sbc	r27, r19
    2ca8:	e4 0b       	sbc	r30, r20
    2caa:	f5 0b       	sbc	r31, r21

00002cac <__udivmodsi4_ep>:
    2cac:	66 1f       	adc	r22, r22
    2cae:	77 1f       	adc	r23, r23
    2cb0:	88 1f       	adc	r24, r24
    2cb2:	99 1f       	adc	r25, r25
    2cb4:	1a 94       	dec	r1
    2cb6:	69 f7       	brne	.-38     	; 0x2c92 <__udivmodsi4_loop>
    2cb8:	60 95       	com	r22
    2cba:	70 95       	com	r23
    2cbc:	80 95       	com	r24
    2cbe:	90 95       	com	r25
    2cc0:	9b 01       	movw	r18, r22
    2cc2:	ac 01       	movw	r20, r24
    2cc4:	bd 01       	movw	r22, r26
    2cc6:	cf 01       	movw	r24, r30
    2cc8:	08 95       	ret

00002cca <__eerd_dword_m328p>:
    2cca:	a6 e1       	ldi	r26, 0x16	; 22
    2ccc:	b0 e0       	ldi	r27, 0x00	; 0
    2cce:	44 e0       	ldi	r20, 0x04	; 4
    2cd0:	50 e0       	ldi	r21, 0x00	; 0
    2cd2:	0c 94 98 16 	jmp	0x2d30	; 0x2d30 <__eerd_blraw_m328p>

00002cd6 <__eerd_word_m328p>:
    2cd6:	a8 e1       	ldi	r26, 0x18	; 24
    2cd8:	b0 e0       	ldi	r27, 0x00	; 0
    2cda:	42 e0       	ldi	r20, 0x02	; 2
    2cdc:	50 e0       	ldi	r21, 0x00	; 0
    2cde:	0c 94 98 16 	jmp	0x2d30	; 0x2d30 <__eerd_blraw_m328p>

00002ce2 <__eewr_block_m328p>:
    2ce2:	dc 01       	movw	r26, r24
    2ce4:	cb 01       	movw	r24, r22
    2ce6:	03 c0       	rjmp	.+6      	; 0x2cee <__eewr_block_m328p+0xc>
    2ce8:	2d 91       	ld	r18, X+
    2cea:	0e 94 7c 16 	call	0x2cf8	; 0x2cf8 <__eewr_r18_m328p>
    2cee:	41 50       	subi	r20, 0x01	; 1
    2cf0:	50 40       	sbci	r21, 0x00	; 0
    2cf2:	d0 f7       	brcc	.-12     	; 0x2ce8 <__eewr_block_m328p+0x6>
    2cf4:	08 95       	ret

00002cf6 <__eewr_byte_m328p>:
    2cf6:	26 2f       	mov	r18, r22

00002cf8 <__eewr_r18_m328p>:
    2cf8:	f9 99       	sbic	0x1f, 1	; 31
    2cfa:	fe cf       	rjmp	.-4      	; 0x2cf8 <__eewr_r18_m328p>
    2cfc:	1f ba       	out	0x1f, r1	; 31
    2cfe:	92 bd       	out	0x22, r25	; 34
    2d00:	81 bd       	out	0x21, r24	; 33
    2d02:	20 bd       	out	0x20, r18	; 32
    2d04:	0f b6       	in	r0, 0x3f	; 63
    2d06:	f8 94       	cli
    2d08:	fa 9a       	sbi	0x1f, 2	; 31
    2d0a:	f9 9a       	sbi	0x1f, 1	; 31
    2d0c:	0f be       	out	0x3f, r0	; 63
    2d0e:	01 96       	adiw	r24, 0x01	; 1
    2d10:	08 95       	ret

00002d12 <__eewr_dword_m328p>:
    2d12:	24 2f       	mov	r18, r20
    2d14:	0e 94 7c 16 	call	0x2cf8	; 0x2cf8 <__eewr_r18_m328p>
    2d18:	25 2f       	mov	r18, r21
    2d1a:	0e 94 7c 16 	call	0x2cf8	; 0x2cf8 <__eewr_r18_m328p>
    2d1e:	0c 94 91 16 	jmp	0x2d22	; 0x2d22 <__eewr_word_m328p>

00002d22 <__eewr_word_m328p>:
    2d22:	0e 94 7b 16 	call	0x2cf6	; 0x2cf6 <__eewr_byte_m328p>
    2d26:	27 2f       	mov	r18, r23
    2d28:	0c 94 7c 16 	jmp	0x2cf8	; 0x2cf8 <__eewr_r18_m328p>

00002d2c <__eerd_block_m328p>:
    2d2c:	dc 01       	movw	r26, r24
    2d2e:	cb 01       	movw	r24, r22

00002d30 <__eerd_blraw_m328p>:
    2d30:	fc 01       	movw	r30, r24
    2d32:	f9 99       	sbic	0x1f, 1	; 31
    2d34:	fe cf       	rjmp	.-4      	; 0x2d32 <__eerd_blraw_m328p+0x2>
    2d36:	06 c0       	rjmp	.+12     	; 0x2d44 <__eerd_blraw_m328p+0x14>
    2d38:	f2 bd       	out	0x22, r31	; 34
    2d3a:	e1 bd       	out	0x21, r30	; 33
    2d3c:	f8 9a       	sbi	0x1f, 0	; 31
    2d3e:	31 96       	adiw	r30, 0x01	; 1
    2d40:	00 b4       	in	r0, 0x20	; 32
    2d42:	0d 92       	st	X+, r0
    2d44:	41 50       	subi	r20, 0x01	; 1
    2d46:	50 40       	sbci	r21, 0x00	; 0
    2d48:	b8 f7       	brcc	.-18     	; 0x2d38 <__eerd_blraw_m328p+0x8>
    2d4a:	08 95       	ret

00002d4c <_exit>:
    2d4c:	f8 94       	cli

00002d4e <__stop_program>:
    2d4e:	ff cf       	rjmp	.-2      	; 0x2d4e <__stop_program>
